(dp0
S'METTS MARK'
p1
(dp2
S'to_messages'
p3
I807
sS'to_ratio'
p4
cnumpy.core.multiarray
scalar
p5
(cnumpy
dtype
p6
(S'f8'
p7
I0
I1
tp8
Rp9
(I3
S'<'
p10
NNNI-1
I-1
I0
tp11
bS'\xbc\x0c7h/JT?'
p12
tp13
Rp14
sS'deferral_payments'
p15
S'NaN'
p16
sS'log_total'
p17
g5
(g9
S'%\x86\xce\xbdA\xc0+@'
p18
tp19
Rp20
sS'expenses'
p21
I94299
sS'to_mail_ratio'
p22
g5
(g9
S'S\x82\xc9\xce\xed\x9e\xe5?'
p23
tp24
Rp25
sS'poi'
p26
I00
sS'log_expense'
p27
g5
(g9
S'H\xb6\xdeJ\x90\xe8&@'
p28
tp29
Rp30
sS'deferred_income'
p31
g16
sS'PC3_fin'
p32
g5
(g9
S'\x10n)\x9b\xf7\xc3\x83\xbf'
p33
tp34
Rp35
sS'email_address'
p36
S'mark.metts@enron.com'
p37
sS'id'
p38
I0
sS'from_poi_ratio'
p39
g5
(g9
S'\x1b\x8a\xfb\xa4a\xc2\xa6?'
p40
tp41
Rp42
sS'log_exercised_stock_options'
p43
I0
sS'restricted_stock_deferred'
p44
g16
sS'shared_receipt_with_poi'
p45
I702
sS'loan_advances'
p46
g16
sS'from_messages'
p47
I29
sS'other'
p48
I1740
sS'log_total_stock_value'
p49
g5
(g9
S'\xfeR?\x19\x17\x8f*@'
p50
tp51
Rp52
sS'to_poi_ratio'
p53
g5
(g9
S'\xbay\xbai\x83\x18V?'
p54
tp55
Rp56
sS'log_other'
p57
g5
(g9
S'\x9b1LB\xb8\xd8\x1d@'
p58
tp59
Rp60
sS'log_long_term_incentive'
p61
I0
sS'director_fees'
p62
g16
sS'log_bonus'
p63
g5
(g9
S'[\xee\xe7\xa9\xff\x9b*@'
p64
tp65
Rp66
sS'bonus'
p67
I600000
sS'total_stock_value'
p68
I585062
sS'from_poi_to_this_person'
p69
I38
sS'from_this_person_to_poi'
p70
I1
sS'PC1_fin'
p71
g5
(g9
S'\xa6\xaa\xc09\xa1/\xe5\xbf'
p72
tp73
Rp74
sS'long_term_incentive'
p75
g16
sS'restricted_stock'
p76
I585062
sS'salary'
p77
I365788
sS'log_restricted'
p78
g5
(g9
S'\xfeR?\x19\x17\x8f*@'
p79
tp80
Rp81
sS'total_payments'
p82
I1061827
sS'from_ratio'
p83
g5
(g9
S'\xf0\x90\x08Z\xf4\xcb\xea?'
p84
tp85
Rp86
sS'exercised_stock_options'
p87
g16
sS'PC2_fin'
p88
g5
(g9
S'\xb1Q\x8e\x1aZ\xaa\xc0\xbf'
p89
tp90
Rp91
sS'log_salary'
p92
g5
(g9
S']_\x0eP\x9f\x9e)@'
p93
tp94
Rp95
ssS'BAXTER JOHN C'
p96
(dp97
g3
g16
sg4
I0
sg15
I1295738
sg17
g5
(g9
S'\xa8qXn\xba\x16/@'
p98
tp99
Rp100
sg21
I11200
sg22
I0
sg26
I00
sg27
g5
(g9
S'Q\x84_\xf3\xb7\xa5"@'
p101
tp102
Rp103
sg31
I-1386055
sg32
g5
(g9
S'\xb3\x0e\x10\x1f\x17\x8d\xf6?'
p104
tp105
Rp106
sg36
g16
sg38
I1
sg39
I0
sg43
g5
(g9
S'\xd3\xa1fw\xeem/@'
p107
tp108
Rp109
sg44
g16
sg45
g16
sg46
g16
sg47
g16
sg48
I2660303
sg49
g5
(g9
S'\x8cr\xb8\xdd\xb5-0@'
p110
tp111
Rp112
sg53
I0
sg57
g5
(g9
S'@:\xe2\xb0\x80\x96-@'
p113
tp114
Rp115
sg61
g5
(g9
S';\x92\xa5\x88\xb3\x8d,@'
p116
tp117
Rp118
sg62
g16
sg63
g5
(g9
S'\xfa\x91\xd7\xd9\xe3\xfe+@'
p119
tp120
Rp121
sg67
I1200000
sg68
I10623258
sg69
g16
sg70
g16
sg71
g5
(g9
S'\x95\x8d\x99D\x88c\xf1?'
p122
tp123
Rp124
sg75
I1586055
sg76
I3942714
sg77
I267102
sg78
g5
(g9
S'S\x11TA\xf0_.@'
p125
tp126
Rp127
sg82
I5634343
sg83
I0
sg87
I6680544
sg88
g5
(g9
S'\xe2\xef>\xbfh\x98\xf8\xbf'
p128
tp129
Rp130
sg92
g5
(g9
S'dJ\x0e8\xa3\xfd(@'
p131
tp132
Rp133
ssS'ELLIOTT STEVEN'
p134
(dp135
g3
g16
sg4
I0
sg15
g16
sg17
g5
(g9
S'\x89\xd2\xa2\xa4\xad\x86(@'
p136
tp137
Rp138
sg21
I78552
sg22
I0
sg26
I00
sg27
g5
(g9
S' T\xad(\x04\x8b&@'
p139
tp140
Rp141
sg31
I-400729
sg32
g5
(g9
S'\xa3g-\\\xf0\x8d\xca\xbf'
p142
tp143
Rp144
sg36
S'steven.elliott@enron.com'
p145
sg38
I2
sg39
I0
sg43
g5
(g9
S'\xb5Q,J8\xce.@'
p146
tp147
Rp148
sg44
g16
sg45
g16
sg46
g16
sg47
g16
sg48
I12961
sg49
g5
(g9
S'\xc8\xc5\x16\xf8\xcam/@'
p149
tp150
Rp151
sg53
I0
sg57
g5
(g9
S'\xbdk\xfc\x88|\xf0"@'
p152
tp153
Rp154
sg61
I0
sg62
g16
sg63
g5
(g9
S'\x07RyP\x08\x88)@'
p155
tp156
Rp157
sg67
I350000
sg68
I6678735
sg69
g16
sg70
g16
sg71
g5
(g9
S'\x1a\xbf\xa8\xd6\xa0\xc0\xf5\xbf'
p158
tp159
Rp160
sg75
g16
sg76
I1788391
sg77
I170941
sg78
g5
(g9
S'D)\xed\xe4,\xcb,@'
p161
tp162
Rp163
sg82
I211725
sg83
I0
sg87
I4890344
sg88
g5
(g9
S'1\xcd=\xd8X\x12\xd3\xbf'
p164
tp165
Rp166
sg92
g5
(g9
S'\x9bi\xb21 \x19(@'
p167
tp168
Rp169
ssS'HANNON KEVIN P'
p170
(dp171
g3
I1045
sg4
g5
(g9
S'd\x04\x0b\x82\xbb_\x94?'
p172
tp173
Rp174
sg15
g16
sg17
g5
(g9
S'/\xe7\xf4\xdfj%)@'
p175
tp176
Rp177
sg21
I34039
sg22
g5
(g9
S'\x03\xe8\xe8\xca\xa5\xb3\xe5?'
p178
tp179
Rp180
sg26
I01
sg27
g5
(g9
S'K\xc5\x0f\xb0\xda\xde$@'
p181
tp182
Rp183
sg31
I-3117011
sg32
g5
(g9
S'b\x99\xc8\x0cb\xc1\xf3\xbf'
p184
tp185
Rp186
sg36
S'kevin.hannon@enron.com'
p187
sg38
I4
sg39
g5
(g9
S'\xba(\xee>e\xfb\x9d?'
p188
tp189
Rp190
sg43
g5
(g9
S'5)\xfb\xd6\xe5\r/@'
p191
tp192
Rp193
sg44
g16
sg45
I1035
sg46
g16
sg47
I32
sg48
I11350
sg49
g5
(g9
S'\x91zc,@W/@'
p194
tp195
Rp196
sg53
g5
(g9
S'H\xa8\xca\xba\x8d\x93\x93?'
p197
tp198
Rp199
sg57
g5
(g9
S'\xc1\x0fb\xba\x87\xac"@'
p200
tp201
Rp202
sg61
g5
(g9
S'\x98\xbf\xcc\x19\x99\x97,@'
p203
tp204
Rp205
sg62
g16
sg63
g5
(g9
S'c\xfc\xf5\xb8#q,@'
p206
tp207
Rp208
sg67
I1500000
sg68
I6391065
sg69
I32
sg70
I21
sg71
g5
(g9
S'\x16\x16\xd7\xa5\xf3q\xfd?'
p209
tp210
Rp211
sg75
I1617011
sg76
I853064
sg77
I243293
sg78
g5
(g9
S'.\xc3\x92\x8b,P+@'
p212
tp213
Rp214
sg82
I288682
sg83
g5
(g9
S'\xef9\xfa\xfeB.\xe6?'
p215
tp216
Rp217
sg87
I5538001
sg88
g5
(g9
S'\\\xc1]\xd8\xfc$\xd2?'
p218
tp219
Rp220
sg92
g5
(g9
S'\x9b\xb5\xb7\xcb\xd5\xcd(@'
p221
tp222
Rp223
ssS'MORDAUNT KRISTINA M'
p224
(dp225
g3
g16
sg4
I0
sg15
g16
sg17
g5
(g9
S'a\xac\xe7\xd3\xc6\xb3*@'
p226
tp227
Rp228
sg21
I35018
sg22
I0
sg26
I00
sg27
g5
(g9
S'\x88\x0c\xadE_\xed$@'
p229
tp230
Rp231
sg31
g16
sg32
g5
(g9
S'\xb3\xf5\x11\xf1\\\xd2\x0c@'
p232
tp233
Rp234
sg36
S'kristina.mordaunt@enron.com'
p235
sg38
I5
sg39
I0
sg43
I0
sg44
g16
sg45
g16
sg46
g16
sg47
g16
sg48
I1411
sg49
g5
(g9
S'<\xe6\x82\x13\xd8~(@'
p236
tp237
Rp238
sg53
I0
sg57
g5
(g9
S'?$`n\x1a\x02\x1d@'
p239
tp240
Rp241
sg61
I0
sg62
g16
sg63
g5
(g9
S'1\xc6\x8f\xd5\x16b)@'
p242
tp243
Rp244
sg67
I325000
sg68
I208510
sg69
g16
sg70
g16
sg71
g5
(g9
S'S\xdc(\xee\xb5=\xd3?'
p245
tp246
Rp247
sg75
g16
sg76
I208510
sg77
I267093
sg78
g5
(g9
S'<\xe6\x82\x13\xd8~(@'
p248
tp249
Rp250
sg82
I628522
sg83
I0
sg87
g16
sg88
g5
(g9
S'r\xf6\xb6op\x93\xf0?'
p251
tp252
Rp253
sg92
g5
(g9
S'\xfe\xa0k\xcd\x9e\xfd(@'
p254
tp255
Rp256
ssS'MCMAHON JEFFREY'
p257
(dp258
g3
I2355
sg4
g5
(g9
S'\xb8\xa6\xf8.\x99|\x86?'
p259
tp260
Rp261
sg15
g16
sg17
g5
(g9
S'4\xa9\xd5)\xf0s.@'
p262
tp263
Rp264
sg21
I137108
sg22
g5
(g9
S'\xbeg+\\\x08\xdc\xe5?'
p265
tp266
Rp267
sg26
I00
sg27
g5
(g9
S"=PrS4\xa8'@"
p268
tp269
Rp270
sg31
g16
sg32
g5
(g9
S'\xd6J\xc51b)\xf3\xbf'
p271
tp272
Rp273
sg36
S'jeffrey.mcmahon@enron.com'
p274
sg38
I7
sg39
g5
(g9
S'H\x15\xd4\xf7\x15l\x98?'
p275
tp276
Rp277
sg43
g5
(g9
S'J-\x86D9\xd4+@'
p278
tp279
Rp280
sg44
g16
sg45
I2228
sg46
g16
sg47
I48
sg48
I297353
sg49
g5
(g9
S'\xb7\x14Yn\xe9\xa5,@'
p281
tp282
Rp283
sg53
g5
(g9
S'v\xfd\xbf\x12\x11\xe7\x86?'
p284
tp285
Rp286
sg57
g5
(g9
S'q\xbb+\xda\x914)@'
p287
tp288
Rp289
sg61
g5
(g9
S'u\x8e\x8c\xe2&\xe7*@'
p290
tp291
Rp292
sg62
g16
sg63
g5
(g9
S'\x0e\xb1^e\xc3\x8a-@'
p293
tp294
Rp295
sg67
I2600000
sg68
I1662855
sg69
I58
sg70
I26
sg71
g5
(g9
S'=G|\xd9\xc1\x8d\xfb?'
p296
tp297
Rp298
sg75
I694862
sg76
I558801
sg77
I370448
sg78
g5
(g9
S'(\xef\xd5\xb1\x93w*@'
p299
tp300
Rp301
sg82
I4099771
sg83
g5
(g9
S'\xc7>@\xae\x03Z\xe9?'
p302
tp303
Rp304
sg87
I1104054
sg88
g5
(g9
S'\xaa\x02\xa6\xeah\xe6\xd8?'
p305
tp306
Rp307
sg92
g5
(g9
S'\xf3\x14\xc2\x92\x1a\xa5)@'
p308
tp309
Rp310
ssS'PIPER GREGORY F'
p311
(dp312
g3
I1238
sg4
g5
(g9
S'\xb3\x8a\xc10\xe8y\xa3?'
p313
tp314
Rp315
sg15
I1130036
sg17
g5
(g9
S'\x06\xe4\x03\xb4n\xbc,@'
p316
tp317
Rp318
sg21
I43057
sg22
g5
(g9
S'r\xafR1\x7f\xa6\xe3?'
p319
tp320
Rp321
sg26
I00
sg27
g5
(g9
S'\x84g\xfa\xf3.W%@'
p322
tp323
Rp324
sg31
I-33333
sg32
g5
(g9
S'O:\xac\xa2\xdco\xe0\xbf'
p325
tp326
Rp327
sg36
S'greg.piper@enron.com'
p328
sg38
I9
sg39
g5
(g9
S'\xb3\x13\xf6\xd5\xfb\xf4\xa4?'
p329
tp330
Rp331
sg43
g5
(g9
S'\x1d\x9fGiB`+@'
p332
tp333
Rp334
sg44
I-409554
sg45
I742
sg46
g16
sg47
I222
sg48
I778
sg49
g5
(g9
S'\x1d\x9fGiB`+@'
p335
tp336
Rp337
sg53
g5
(g9
S'\xdfr\xab\x14\n\x18\xac?'
p338
tp339
Rp340
sg57
g5
(g9
S';\x0c\xff\xea|\xa0\x1a@'
p341
tp342
Rp343
sg61
I0
sg62
g16
sg63
g5
(g9
S'\x99\xf1\x81\x8af\xcc)@'
p344
tp345
Rp346
sg67
I400000
sg68
I880290
sg69
I61
sg70
I48
sg71
g5
(g9
S'\x87\xb4\n\x92\xca\xea\xe1?'
p347
tp348
Rp349
sg75
g16
sg76
I409554
sg77
I197091
sg78
g5
(g9
S'\x04>\x8ed|\xd8)@'
p350
tp351
Rp352
sg82
I1737629
sg83
g5
(g9
S'\xda\xdbYM\x12\x13\xcf?'
p353
tp354
Rp355
sg87
I880290
sg88
g5
(g9
S'\xc9\x1f!X\xac\xef\xf0\xbf'
p356
tp357
Rp358
sg92
g5
(g9
S'@:9\xe9\x01b(@'
p359
tp360
Rp361
ssS'HUMPHREY GENE E'
p362
(dp363
g3
I128
sg4
g5
(g9
S'\xbb\xea\xdb1\x91\xec\xbf?'
p364
tp365
Rp366
sg15
I2964506
sg17
g5
(g9
S'\xf1\x94D5\xdb\xe4-@'
p367
tp368
Rp369
sg21
I4994
sg22
g5
(g9
S'&\xd9q\xdfc?\xe4?'
p370
tp371
Rp372
sg26
I00
sg27
g5
(g9
S'GzF*0\x08!@'
p373
tp374
Rp375
sg31
g16
sg32
g5
(g9
S'\xe9\xeb\xf8\x90\xea\xd3\xfa?'
p376
tp377
Rp378
sg36
S'gene.humphrey@enron.com'
p379
sg38
I10
sg39
g5
(g9
S'a\xa7e\x98\xaf\x12\xb1?'
p380
tp381
Rp382
sg43
g5
(g9
S'YA\xf8\xf3#H-@'
p383
tp384
Rp385
sg44
g16
sg45
I119
sg46
g16
sg47
I17
sg48
g16
sg49
g5
(g9
S'YA\xf8\xf3#H-@'
p386
tp387
Rp388
sg53
g5
(g9
S'\xbb\x95\x17\x9e^2\xbc?'
p389
tp390
Rp391
sg57
I0
sg61
I0
sg62
g16
sg63
I0
sg67
g16
sg68
I2282768
sg69
I10
sg70
I17
sg71
g5
(g9
S'\xc8\xad\xd5\x7fr\x7f\xf8?'
p392
tp393
Rp394
sg75
g16
sg76
g16
sg77
I130724
sg78
I0
sg82
I3100224
sg83
g5
(g9
S'\xb2(H\xb0\x9f\x9b\xdd?'
p395
tp396
Rp397
sg87
I2282768
sg88
g5
(g9
S'?\xe6\xf179\x1c\xf5\xbf'
p398
tp399
Rp400
sg92
g5
(g9
S"^+p\xb8\xca\x8f'@"
p401
tp402
Rp403
ssS'UMANOFF ADAM S'
p404
(dp405
g3
I111
sg4
g5
(g9
S'\x00\x00\x00\x00\x00\x00\x00\x00'
p406
tp407
Rp408
sg15
g16
sg17
g5
(g9
S'\xe8\xb1\t_S\xe0+@'
p409
tp410
Rp411
sg21
I53122
sg22
g5
(g9
S'\xdfQp\x93\xcf\xdd\xe3?'
p412
tp413
Rp414
sg26
I00
sg27
g5
(g9
S'\xf1\xbc\x8e\xc4\xbc\xc2%@'
p415
tp416
Rp417
sg31
g16
sg32
g5
(g9
S'\xf3Z\xd0j\x07h\xf3\xbf'
p418
tp419
Rp420
sg36
S'adam.umanoff@enron.com'
p421
sg38
I11
sg39
g5
(g9
S'\xa5\x94\x80/C\xc5\xb6?'
p422
tp423
Rp424
sg43
I0
sg44
g16
sg45
I41
sg46
g16
sg47
I18
sg48
g16
sg49
I0
sg53
g5
(g9
S'\x00\x00\x00\x00\x00\x00\x00\x00'
p425
tp426
Rp427
sg57
I0
sg61
I0
sg62
g16
sg63
g5
(g9
S'\x18C\x0cr\n(+@'
p428
tp429
Rp430
sg67
I788750
sg68
g16
sg69
I12
sg70
I0
sg71
g5
(g9
S'\xf5\x7f\x82\xeb\xda\x8c\xbd?'
p431
tp432
Rp433
sg75
g16
sg76
g16
sg77
I288589
sg78
I0
sg82
I1130461
sg83
g5
(g9
S'Q\x14\x81\xfa\xaeX\xe0?'
p434
tp435
Rp436
sg87
g16
sg88
g5
(g9
S"\x8f6\xca\xe8\xf0'\xf3?"
p437
tp438
Rp439
sg92
g5
(g9
S'\xfe\x16\x87\xa4@%)@'
p440
tp441
Rp442
ssS'BLACHMAN JEREMY M'
p443
(dp444
g3
I2475
sg4
g5
(g9
S'\xe0s/\x8d\xefwJ?'
p445
tp446
Rp447
sg15
g16
sg17
g5
(g9
S'\x9cl\xf7l7\x08-@'
p448
tp449
Rp450
sg21
I84208
sg22
g5
(g9
S'2\xe1\xc6\xb50\x17\xe6?'
p451
tp452
Rp453
sg26
I00
sg27
g5
(g9
S'\xcc$:z\x9d\xae&@'
p454
tp455
Rp456
sg31
g16
sg32
g5
(g9
S'\x0b}\xc5\xe7)i\xce\xbf'
p457
tp458
Rp459
sg36
S'jeremy.blachman@enron.com'
p460
sg38
I12
sg39
g5
(g9
S'\x8b\xc6\x13\x9f\xc7w\x84?'
p461
tp462
Rp463
sg43
g5
(g9
S'KQ\xef\xb8\x98\x18+@'
p464
tp465
Rp466
sg44
g16
sg45
I2326
sg46
g16
sg47
I14
sg48
I272
sg49
g5
(g9
S'\xf87 \xd6\x9e\x89+@'
p467
tp468
Rp469
sg53
g5
(g9
S'\\\x16\xe3*\x1c\xd7K?'
p470
tp471
Rp472
sg57
g5
(g9
S'\xb5\\z`Wl\x16@'
p473
tp474
Rp475
sg61
g5
(g9
S'\xe4\xadO_AC+@'
p476
tp477
Rp478
sg62
g16
sg63
g5
(g9
S'\x9a\xa61\xebTN+@'
p479
tp480
Rp481
sg67
I850000
sg68
I954354
sg69
I25
sg70
I2
sg71
g5
(g9
S'\x88\x92\xb9\x9c,\x99\xeb\xbf'
p482
tp483
Rp484
sg75
I831809
sg76
I189041
sg77
I248546
sg78
g5
(g9
S'\x87\x0c\xc6\xfe\xa7L(@'
p485
tp486
Rp487
sg82
I2014835
sg83
g5
(g9
S']\xa4`\xa3^d\xf0?'
p488
tp489
Rp490
sg87
I765313
sg88
g5
(g9
S'\xf0\xcb5\xbc\x02\x1d\xcc\xbf'
p491
tp492
Rp493
sg92
g5
(g9
S'\xa8jf\xaf\xc5\xd8(@'
p494
tp495
Rp496
ssS'SUNDE MARTIN'
p497
(dp498
g3
I2647
sg4
g5
(g9
S'\x89th\xdd.\x11t?'
p499
tp500
Rp501
sg15
g16
sg17
g5
(g9
S'\xc9u\x1f\x0fK\x80,@'
p502
tp503
Rp504
sg21
g16
sg22
g5
(g9
S'Mn\xdd\x0e\x16\xf4\xe5?'
p505
tp506
Rp507
sg26
I00
sg27
I0
sg31
g16
sg32
g5
(g9
S'\xfc\xa2\xb6\r%\x9b\xbe\xbf'
p508
tp509
Rp510
sg36
S'marty.sunde@enron.com'
p511
sg38
I13
sg39
g5
(g9
S'\xba\x96\xd7{\x7f\x07\x8c?'
p512
tp513
Rp514
sg43
I0
sg44
g16
sg45
I2565
sg46
g16
sg47
I38
sg48
I111122
sg49
g5
(g9
S'\xdf\xb6\xbc\x1e"\xea*@'
p515
tp516
Rp517
sg53
g5
(g9
S'\xcef\x8aB\xe4Ot?'
p518
tp519
Rp520
sg57
g5
(g9
S"\xe4\x16\x11\xd3\x9c<'@"
p521
tp522
Rp523
sg61
g5
(g9
S'@\x88\xfd\x13\xf3%*@'
p524
tp525
Rp526
sg62
g16
sg63
g5
(g9
S'\xa6\xf5h\x80\xec\xea*@'
p527
tp528
Rp529
sg67
I700000
sg68
I698920
sg69
I37
sg70
I13
sg71
g5
(g9
S'\x831\xee\xdfdp\xe4\xbf'
p530
tp531
Rp532
sg75
I476451
sg76
I698920
sg77
I257486
sg78
g5
(g9
S'\xdf\xb6\xbc\x1e"\xea*@'
p533
tp534
Rp535
sg82
I1545059
sg83
g5
(g9
S'C4\x03\xbe\xc1\xc1\xe5?'
p536
tp537
Rp538
sg87
g16
sg88
g5
(g9
S'!\xd5\xf6c\xdbK\xc1\xbf'
p539
tp540
Rp541
sg92
g5
(g9
S'\x9eS$n\xdd\xea(@'
p542
tp543
Rp544
ssS'COLWELL WESLEY'
p545
(dp546
g3
I1758
sg4
g5
(g9
S'\x03\\\xbcE\x9d\x8cy?'
p547
tp548
Rp549
sg15
I27610
sg17
g5
(g9
S'\x14\xeb\xa9=\xd5m,@'
p550
tp551
Rp552
sg21
I16514
sg22
g5
(g9
S'\xcb\xba\xe3\xac\xa0\xd2\xe5?'
p553
tp554
Rp555
sg26
I01
sg27
g5
(g9
S'\x12\xd4h\x84\x86l#@'
p556
tp557
Rp558
sg31
I-144062
sg32
g5
(g9
S'\x94\x90\xb3P\x908\xf4\xbf'
p559
tp560
Rp561
sg36
S'wes.colwell@enron.com'
p562
sg38
I16
sg39
g5
(g9
S'\x11\xb2\x82=\xa2\t\xc0?'
p563
tp564
Rp565
sg43
I0
sg44
g16
sg45
I1132
sg46
g16
sg47
I40
sg48
I101740
sg49
g5
(g9
S'\xf2\xd2\xda\xe8\xa2\xe9*@'
p566
tp567
Rp568
sg53
g5
(g9
S'\x00\xb8\r\xb1\x8b9\x80?'
p569
tp570
Rp571
sg57
g5
(g9
S"\xcd\x1dr4s\x0f'@"
p572
tp573
Rp574
sg61
I0
sg62
g16
sg63
g5
(g9
S'\xfa\x91\xd7\xd9\xe3\xfe+@'
p575
tp576
Rp577
sg67
I1200000
sg68
I698242
sg69
I240
sg70
I11
sg71
g5
(g9
S',|\xa2e\xb7\xb0\x87?'
p578
tp579
Rp580
sg75
g16
sg76
I698242
sg77
I288542
sg78
g5
(g9
S'\xf2\xd2\xda\xe8\xa2\xe9*@'
p581
tp582
Rp583
sg82
I1490344
sg83
g5
(g9
S'WZ2\xaer"\xff?'
p584
tp585
Rp586
sg87
g16
sg88
g5
(g9
S'\x9d\xe5\x83\xc6\xbc7\xf6?'
p587
tp588
Rp589
sg92
g5
(g9
S'\xcd\xa3\\K+%)@'
p590
tp591
Rp592
ssS'MULLER MARK S'
p593
(dp594
g3
I136
sg4
g5
(g9
S'\x00\x00\x00\x00\x00\x00\x00\x00'
p595
tp596
Rp597
sg15
I842924
sg17
g5
(g9
S'\x94[\xd2\xdcg\xf5-@'
p598
tp599
Rp600
sg21
g16
sg22
g5
(g9
S'X\xb3\x95\xd0Ws\xe4?'
p601
tp602
Rp603
sg26
I00
sg27
I0
sg31
I-719000
sg32
g5
(g9
S'X\xfdD\xad\x17\xd9\xe0?'
p604
tp605
Rp606
sg36
S's..muller@enron.com'
p607
sg38
I17
sg39
g5
(g9
S'\xafTm\xf9\xcfs\xb3?'
p608
tp609
Rp610
sg43
g5
(g9
S'\xc2\xca#0\x98\xbd+@'
p611
tp612
Rp613
sg44
g16
sg45
I114
sg46
g16
sg47
I16
sg48
I947
sg49
g5
(g9
S'\xb9\xfb\x8a\xa1\xf0S,@'
p614
tp615
Rp616
sg53
g5
(g9
S'\x00\x00\x00\x00\x00\x00\x00\x00'
p617
tp618
Rp619
sg57
g5
(g9
S'=\xc3\xcb<\xc7i\x1b@'
p620
tp621
Rp622
sg61
g5
(g9
S'.,"\x01\xdc\xb8,@'
p623
tp624
Rp625
sg62
g16
sg63
g5
(g9
S'.x\x82\x18W\xd2+@'
p626
tp627
Rp628
sg67
I1100000
sg68
I1416848
sg69
I12
sg70
I0
sg71
g5
(g9
S'ko\xc5\x116=\xe2\xbf'
p629
tp630
Rp631
sg75
I1725545
sg76
I360528
sg77
I251654
sg78
g5
(g9
S'\x9f\xab\\\xd34\x97)@'
p632
tp633
Rp634
sg82
I3202070
sg83
g5
(g9
S'\xd0@p^_\xe8\xe1?'
p635
tp636
Rp637
sg87
I1056320
sg88
g5
(g9
S'+!\x9f\x12\xaf}\xcf?'
p638
tp639
Rp640
sg92
g5
(g9
S'\xac\x1b\xac\x8a"\xdf(@'
p641
tp642
Rp643
ssS'JACKSON CHARLENE R'
p644
(dp645
g3
I258
sg4
g5
(g9
S'r@\xf5\x17\xda0\xb2?'
p646
tp647
Rp648
sg15
g16
sg17
g5
(g9
S'\x1ea\xb3c\x8ap*@'
p649
tp650
Rp651
sg21
I10181
sg22
g5
(g9
S'\x7f\x05\xed\x88\x1e1\xe3?'
p652
tp653
Rp654
sg26
I00
sg27
g5
(g9
S'\xa6\xb5\xfa\xeb\xe0t"@'
p655
tp656
Rp657
sg31
g16
sg32
g5
(g9
S'\x89%R$\xad\xa2\xf1\xbf'
p658
tp659
Rp660
sg36
S'charlene.jackson@enron.com'
p661
sg38
I18
sg39
g5
(g9
S'\n!]9\x86\x9c\xb3?'
p662
tp663
Rp664
sg43
g5
(g9
S'od\x07h\xc4A(@'
p665
tp666
Rp667
sg44
g16
sg45
I117
sg46
g16
sg47
I56
sg48
I2435
sg49
g5
(g9
S'u\x0c\xbc\xcdh\xfd*@'
p668
tp669
Rp670
sg53
g5
(g9
S'\xff\xaf\xc0&\xb4\x8e\xbc?'
p671
tp672
Rp673
sg57
g5
(g9
S'\xbd\xfci\xcd\xd80\x1f@'
p674
tp675
Rp676
sg61
I0
sg62
g16
sg63
g5
(g9
S'b\xb8\xb09\xc2\xdb(@'
p677
tp678
Rp679
sg67
I250000
sg68
I725735
sg69
I25
sg70
I19
sg71
g5
(g9
S'\xfe\x87\x99\x06`\xf2\xb3?'
p680
tp681
Rp682
sg75
g16
sg76
I540672
sg77
I288558
sg78
g5
(g9
S'\xe6`P\xdc\xb0f*@'
p683
tp684
Rp685
sg82
I551174
sg83
g5
(g9
S'\xb0k)\xf8J\x9f\xd7?'
p686
tp687
Rp688
sg87
I185063
sg88
g5
(g9
S'K\xd1m\x82\x85\x89\xf6?'
p689
tp690
Rp691
sg92
g5
(g9
S'O\x9c\xf1\x8f2%)@'
p692
tp693
Rp694
ssS'WESTFAHL RICHARD K'
p695
(dp696
g3
g16
sg4
I0
sg15
g16
sg17
g5
(g9
S'H^eNw\x16+@'
p697
tp698
Rp699
sg21
I51870
sg22
I0
sg26
I00
sg27
g5
(g9
S'\xd1\xd0V\xa0\x86\xb6%@'
p700
tp701
Rp702
sg31
I-10800
sg32
g5
(g9
S'\x03\xd1\xec>\xbd\xd1\xf0?'
p703
tp704
Rp705
sg36
S'dick.westfahl@enron.com'
p706
sg38
I19
sg39
I0
sg43
I0
sg44
g16
sg45
g16
sg46
g16
sg47
g16
sg48
I401130
sg49
g5
(g9
S'\x95\x80\x0f\xfa\xbc\xb8)@'
p707
tp708
Rp709
sg53
I0
sg57
g5
(g9
S'w\x0f#L\xd8\xcd)@'
p710
tp711
Rp712
sg61
g5
(g9
S'\x7f\xfe\xaf\x8dH\xe8(@'
p713
tp714
Rp715
sg62
g16
sg63
I0
sg67
g16
sg68
I384930
sg69
g16
sg70
g16
sg71
g5
(g9
S'\xf5>\x89\x15\xff\xfd\xf1\xbf'
p716
tp717
Rp718
sg75
I256191
sg76
I384930
sg77
I63744
sg78
g5
(g9
S'\x95\x80\x0f\xfa\xbc\xb8)@'
p719
tp720
Rp721
sg82
I762135
sg83
I0
sg87
g16
sg88
g5
(g9
S'\xd6H\xee\xf2\x874\xe7?'
p722
tp723
Rp724
sg92
g5
(g9
S'\x9a/\x84\x15\x11 &@'
p725
tp726
Rp727
ssS'WALLS JR ROBERT H'
p728
(dp729
g3
I671
sg4
g5
(g9
S'\x00\x00\x00\x00\x00\x00\x00\x00'
p730
tp731
Rp732
sg15
g16
sg17
g5
(g9
S'S\xda\x14\x1b$\xce,@'
p733
tp734
Rp735
sg21
I50936
sg22
g5
(g9
S'D\x1e!\xa3\x81/\xe3?'
p736
tp737
Rp738
sg26
I00
sg27
g5
(g9
S'/3\xa5\xf68\xad%@'
p739
tp740
Rp741
sg31
g16
sg32
g5
(g9
S'\xdd=I\xbd\xaf{\xf1\xbf'
p742
tp743
Rp744
sg36
S'rob.walls@enron.com'
p745
sg38
I21
sg39
g5
(g9
S'\xfes\xc3\x94\xac\x16\x95?'
p746
tp747
Rp748
sg43
g5
(g9
S'\x9e\xc9\xf8O\xdd\x91.@'
p749
tp750
Rp751
sg44
g16
sg45
I215
sg46
g16
sg47
I146
sg48
I2
sg49
g5
(g9
S'):\xc9\xde:./@'
p752
tp753
Rp754
sg53
g5
(g9
S'\x00\x00\x00\x00\x00\x00\x00\x00'
p755
tp756
Rp757
sg57
g5
(g9
S'\xef9\xfa\xfeB.\xe6?'
p758
tp759
Rp760
sg61
g5
(g9
S'\xa7c\xbe\x02\xc4f*@'
p761
tp762
Rp763
sg62
g16
sg63
g5
(g9
S'\x9a\xa61\xebTN+@'
p764
tp765
Rp766
sg67
I850000
sg68
I5898997
sg69
I17
sg70
I0
sg71
g5
(g9
S'\xfeM\t\xcd\x18\x91\xcc?'
p767
tp768
Rp769
sg75
I540751
sg76
I1552453
sg77
I357091
sg78
g5
(g9
S'\x89\xdfu\xd1\xbc\x82,@'
p770
tp771
Rp772
sg82
I1798780
sg83
g5
(g9
S'\xbb\x95\x17\x9e^2\xbc?'
p773
tp774
Rp775
sg87
I4346544
sg88
g5
(g9
S'\x14\x03\xb6\x95\x07\xbb\xf6?'
p776
tp777
Rp778
sg92
g5
(g9
S']\xb2bJM\x92)@'
p779
tp780
Rp781
ssS'KITCHEN LOUISE'
p782
(dp783
g3
I8305
sg4
g5
(g9
S'\xbd\x8d\xfd\x1a\x1b\xa5\x97?'
p784
tp785
Rp786
sg15
g16
sg17
g5
(g9
S'\xb9\x16\xc9\x85\xb7\x1e.@'
p787
tp788
Rp789
sg21
I5774
sg22
g5
(g9
S'&\x03(u\x8fL\xe3?'
p790
tp791
Rp792
sg26
I00
sg27
g5
(g9
S'\x08\xc1+^~R!@'
p793
tp794
Rp795
sg31
g16
sg32
g5
(g9
S' \xa7\x87\x94Q\xc8\xd4?'
p796
tp797
Rp798
sg36
S'louise.kitchen@enron.com'
p799
sg38
I22
sg39
g5
(g9
S'\x0e\xf6\xb5){M\x99?'
p800
tp801
Rp802
sg43
g5
(g9
S'\xd8O4|\xfe\x9a&@'
p803
tp804
Rp805
sg44
g16
sg45
I3669
sg46
g16
sg47
I1728
sg48
I93925
sg49
g5
(g9
S't\xd4EF\xc8l*@'
p806
tp807
Rp808
sg53
g5
(g9
S'\x9c\xf2\xcb\x0b\x88\x97\xa7?'
p809
tp810
Rp811
sg57
g5
(g9
S'\x1e\x06\xc5i\x87\xe6&@'
p812
tp813
Rp814
sg61
I0
sg62
g16
sg63
g5
(g9
S'1\xf5\xc6\xbc\xd1\xe4-@'
p815
tp816
Rp817
sg67
I3100000
sg68
I547143
sg69
I251
sg70
I194
sg71
g5
(g9
S'\x8cl\xc0n\x04\x8c\xe6?'
p818
tp819
Rp820
sg75
g16
sg76
I466101
sg77
I271442
sg78
g5
(g9
S'\x89t\x93g\xb4\x1a*@'
p821
tp822
Rp823
sg82
I3471141
sg83
g5
(g9
S'\x1eQ\xa6\xb49\\\xc1?'
p824
tp825
Rp826
sg87
I81042
sg88
g5
(g9
S'\xd2\xdfd\xac&\x01\x06@'
p827
tp828
Rp829
sg92
g5
(g9
S'\xd9\xbeb\xd2\xe3\x05)@'
p830
tp831
Rp832
ssS'SHANKMAN JEFFREY A'
p833
(dp834
g3
I3221
sg4
g5
(g9
S'\xb4\xc0f\xbbv\r\x9a?'
p835
tp836
Rp837
sg15
g16
sg17
g5
(g9
S'\r\xd2\t\x03\x98\xda-@'
p838
tp839
Rp840
sg21
I178979
sg22
g5
(g9
S'q\xcak\x84Z\xdf\xdb?'
p841
tp842
Rp843
sg26
I00
sg27
g5
(g9
S'\x05\xd5F\xf4\xa60(@'
p844
tp845
Rp846
sg31
g16
sg32
g5
(g9
S'\xcd\x88(J)\xf0\xf6\xbf'
p847
tp848
Rp849
sg36
S'jeffrey.shankman@enron.com'
p850
sg38
I25
sg39
g5
(g9
S'\xc9\xe5\xd6\x8a7.\x90?'
p851
tp852
Rp853
sg43
g5
(g9
S'\xd8.\x9b\xbf\xe9\\,@'
p854
tp855
Rp856
sg44
g16
sg45
I1730
sg46
g16
sg47
I2681
sg48
I1191
sg49
g5
(g9
S'G\xed\xb6\xa4\x8c\x16-@'
p857
tp858
Rp859
sg53
g5
(g9
S'\xaaH\x7f\xf0\x19\xd0\xa5?'
p860
tp861
Rp862
sg57
g5
(g9
S'\xb4\xd9\xb6\x9c\x87T\x1c@'
p863
tp864
Rp865
sg61
g5
(g9
S'\x86\x97z\x83\x8cs*@'
p866
tp867
Rp868
sg62
g16
sg63
g5
(g9
S'?\xa3\x7f\xc9n\x04-@'
p869
tp870
Rp871
sg67
I2000000
sg68
I2072035
sg69
I94
sg70
I83
sg71
g5
(g9
S'R\x81"\x9a\xd2\xa3\xc3\xbf'
p872
tp873
Rp874
sg75
I554422
sg76
I630137
sg77
I304110
sg78
g5
(g9
S'"\xb5\x1d0\x17\xb5*@'
p875
tp876
Rp877
sg82
I3038702
sg83
g5
(g9
S'\xdb\x17m\x85\xdb\xa4\xa1?'
p878
tp879
Rp880
sg87
I1441898
sg88
g5
(g9
S'g\xb4\xde\xfa\x03e\xf3?'
p881
tp882
Rp883
sg92
g5
(g9
S'b\x8b=\xf9\x12@)@'
p884
tp885
Rp886
ssS'BERGSIEKER RICHARD P'
p887
(dp888
g3
I383
sg4
g5
(g9
S'\x00\x00\x00\x00\x00\x00\x00\x00'
p889
tp890
Rp891
sg15
g16
sg17
g5
(g9
S'i@\xef%\xd6\xab*@'
p892
tp893
Rp894
sg21
I59175
sg22
g5
(g9
S'\xf7\xaeb\xffh\xf8\xe3?'
p895
tp896
Rp897
sg26
I00
sg27
g5
(g9
S'\xd0\x987|\xfc\xf9%@'
p898
tp899
Rp900
sg31
I-485813
sg32
g5
(g9
S'[\x123\xe09\xdc\xf6\xbf'
p901
tp902
Rp903
sg36
S'rick.bergsieker@enron.com'
p904
sg38
I27
sg39
g5
(g9
S'\xed\xa0(\xe6Xs\x82?'
p905
tp906
Rp907
sg43
I0
sg44
g16
sg45
I233
sg46
g16
sg47
I59
sg48
I427316
sg49
g5
(g9
S'\xe4\xd4<\xee6\xcc*@'
p908
tp909
Rp910
sg53
g5
(g9
S'\x00\x00\x00\x00\x00\x00\x00\x00'
p911
tp912
Rp913
sg57
g5
(g9
S'\x1fa\xc2\x0e9\xee)@'
p914
tp915
Rp916
sg61
g5
(g9
S'\xd3\x8d[uF4(@'
p917
tp918
Rp919
sg62
g16
sg63
g5
(g9
S'b\xb8\xb09\xc2\xdb(@'
p920
tp921
Rp922
sg67
I250000
sg68
I659249
sg69
I4
sg70
I0
sg71
g5
(g9
S'\xfb.\xd6\xa40\x8a\xf6?'
p923
tp924
Rp925
sg75
I180250
sg76
I659249
sg77
I187922
sg78
g5
(g9
S'\xe4\xd4<\xee6\xcc*@'
p926
tp927
Rp928
sg82
I618850
sg83
g5
(g9
S'\x9d\xa8\xfb\xc6\xfb\xca\xb0?'
p929
tp930
Rp931
sg87
g16
sg88
g5
(g9
S'ww\xb0\x95\xd0\x88\xd6?'
p932
tp933
Rp934
sg92
g5
(g9
S'#\xf4"\xd4\x9dI(@'
p935
tp936
Rp937
ssS'BIBI PHILIPPE A'
p938
(dp939
g3
I1607
sg4
g5
(g9
S'\xe1\xb6c\x8e\x17Wt?'
p940
tp941
Rp942
sg15
g16
sg17
g5
(g9
S'\xa1\xa7 Oy\x10-@'
p943
tp944
Rp945
sg21
I38559
sg22
g5
(g9
S'h\xe1\x98\xc8,\xca\xe5?'
p946
tp947
Rp948
sg26
I00
sg27
g5
(g9
S'\x1c\x136\x16\xb1\x1e%@'
p949
tp950
Rp951
sg31
g16
sg32
g5
(g9
S'\xd2\xc7(\x19\x8c\x1c\xd7\xbf'
p952
tp953
Rp954
sg36
S'philippe.bibi@enron.com'
p955
sg38
I29
sg39
g5
(g9
S'4)\xa7\xf8\xeaf\x8c?'
p956
tp957
Rp958
sg43
g5
(g9
S'6\x16\xb1\xc8Ne,@'
p959
tp960
Rp961
sg44
g16
sg45
I1336
sg46
g16
sg47
I40
sg48
I425688
sg49
g5
(g9
S'\x9dk\xe2W\xcd\xda,@'
p962
tp963
Rp964
sg53
g5
(g9
S'f\xb8\x1cm\x9f\xe6w?'
p965
tp966
Rp967
sg57
g5
(g9
S'\xe2\x07\x0b\xbeD\xec)@'
p968
tp969
Rp970
sg61
g5
(g9
S',\xb0\xdd\x17\x19\xa4)@'
p971
tp972
Rp973
sg62
g16
sg63
g5
(g9
S'\xa0\xff\x8f\x99\x8a\xa1+@'
p974
tp975
Rp976
sg67
I1000000
sg68
I1843816
sg69
I23
sg70
I8
sg71
g5
(g9
S'\xc8\x84W\x02\xfd\x14\xf0?'
p977
tp978
Rp979
sg75
I369721
sg76
I378082
sg77
I213625
sg78
g5
(g9
S'&\xb0\xb5.\x8c\xaf)@'
p980
tp981
Rp982
sg82
I2047593
sg83
g5
(g9
S'I\xf1\x9d\xb4\x84\x12\xdd?'
p983
tp984
Rp985
sg87
I1465734
sg88
g5
(g9
S'yF\x0b\xbf\tZ\xed\xbf'
p986
tp987
Rp988
sg92
g5
(g9
S'\xfd\xe3\xdb\x9f@\x8b(@'
p989
tp990
Rp991
ssS'RIEKER PAULA H'
p992
(dp993
g3
I1328
sg4
g5
(g9
S'kbl\xc3\xee-\xa2?'
p994
tp995
Rp996
sg15
I214678
sg17
g5
(g9
S'Lt\xa5\xcf\xeb\xd1+@'
p997
tp998
Rp999
sg21
I33271
sg22
g5
(g9
S'\x94Z]\xce\x85<\xe5?'
p1000
tp1001
Rp1002
sg26
I01
sg27
g5
(g9
S'\xdd\x87\xc5\x85+\xd3$@'
p1003
tp1004
Rp1005
sg31
I-100000
sg32
g5
(g9
S'\x1f\xd4\nS\xd3K\xec\xbf'
p1006
tp1007
Rp1008
sg36
S'paula.rieker@enron.com'
p1009
sg38
I30
sg39
g5
(g9
S'/\x1e\x7f\xa7\xab\x1b\x99?'
p1010
tp1011
Rp1012
sg43
g5
(g9
S'k@\xa1HV\x9d,@'
p1013
tp1014
Rp1015
sg44
g16
sg45
I1258
sg46
g16
sg47
I82
sg48
I1950
sg49
g5
(g9
S'\xa4A\xef)<\xef,@'
p1016
tp1017
Rp1018
sg53
g5
(g9
S'@T\x92\xae\x99\x01\xa2?'
p1019
tp1020
Rp1021
sg57
g5
(g9
S'\xc3\x14\x1a\x10fM\x1e@'
p1022
tp1023
Rp1024
sg61
I0
sg62
g16
sg63
g5
(g9
S'\xa6\xf5h\x80\xec\xea*@'
p1025
tp1026
Rp1027
sg67
I700000
sg68
I1918887
sg69
I35
sg70
I48
sg71
g5
(g9
S'\x85U\xe3\xe6\x82c\xd3?'
p1028
tp1029
Rp1030
sg75
g16
sg76
I283649
sg77
I249201
sg78
g5
(g9
S'\x9d\x88\xa2\x8ei\x1c)@'
p1031
tp1032
Rp1033
sg82
I1099100
sg83
g5
(g9
S'\x90\xa4\x8a\x04\xc5\xbf\xd6?'
p1034
tp1035
Rp1036
sg87
I1635238
sg88
g5
(g9
S'\xf4@\xf0\xcd\xfaO\xf6?'
p1037
tp1038
Rp1039
sg92
g5
(g9
S'\xbc{\xfd\xa5\x1e\xda(@'
p1040
tp1041
Rp1042
ssS'BECK SALLY W'
p1043
(dp1044
g3
I7315
sg4
g5
(g9
S'\xe6\xd9H\xcb"T\xaa?'
p1045
tp1046
Rp1047
sg15
g16
sg17
g5
(g9
S'\xe8\xb3\xba@t\x91+@'
p1048
tp1049
Rp1050
sg21
I37172
sg22
g5
(g9
S'\x19\xe4\xb8\xdeg+\xdf?'
p1051
tp1052
Rp1053
sg26
I00
sg27
g5
(g9
S'\x005\xabm\xef\x0b%@'
p1054
tp1055
Rp1056
sg31
g16
sg32
g5
(g9
S'\xfbi\xc7X\xcc\x00\xd8\xbf'
p1057
tp1058
Rp1059
sg36
S'sally.beck@enron.com'
p1060
sg38
I32
sg39
g5
(g9
S"\x0b'Y[Z$\x89?"
p1061
tp1062
Rp1063
sg43
I0
sg44
g16
sg45
I2639
sg46
g16
sg47
I4343
sg48
I566
sg49
g5
(g9
S"\xf7C\xa0\x86\x0e}'@"
p1064
tp1065
Rp1066
sg53
g5
(g9
S'1\x88\x12#\xa4l\xbd?'
p1067
tp1068
Rp1069
sg57
g5
(g9
S'\xfc\x01\xf2g\xb8Z\x19@'
p1070
tp1071
Rp1072
sg61
I0
sg62
g16
sg63
g5
(g9
S'\xa6\xf5h\x80\xec\xea*@'
p1073
tp1074
Rp1075
sg67
I700000
sg68
I126027
sg69
I144
sg70
I386
sg71
g5
(g9
S'd\xa8\x17\x96\xaeo\xd8\xbf'
p1076
tp1077
Rp1078
sg75
g16
sg76
I126027
sg77
I231330
sg78
g5
(g9
S"\xf7C\xa0\x86\x0e}'@"
p1079
tp1080
Rp1081
sg82
I969068
sg83
g5
(g9
S'\xe4XQ o\xb3\xa0?'
p1082
tp1083
Rp1084
sg87
g16
sg88
g5
(g9
S'>\xa2j\x13\\\x17\xd7?'
p1085
tp1086
Rp1087
sg92
g5
(g9
S'p\xf4u\xfc\x04\xb4(@'
p1088
tp1089
Rp1090
ssS'ECHOLS JOHN B'
p1091
(dp1092
g3
g16
sg4
I0
sg15
g16
sg17
g5
(g9
S'(\xe7\xc5\xee\xa0\x9c-@'
p1093
tp1094
Rp1095
sg21
I21530
sg22
I0
sg26
I00
sg27
g5
(g9
S'\xccO\xde\xe5S\xf4#@'
p1096
tp1097
Rp1098
sg31
g16
sg32
g5
(g9
S'\xcdA\xd9E_\x08\xd9\xbf'
p1099
tp1100
Rp1101
sg36
S'john.echols@enron.com'
p1102
sg38
I34
sg39
I0
sg43
g5
(g9
S'\xfd\xd7zl9\x9d*@'
p1103
tp1104
Rp1105
sg44
g16
sg45
g16
sg46
g16
sg47
g16
sg48
I53775
sg49
g5
(g9
S'\x88\x15|N\x19\xa6+@'
p1106
tp1107
Rp1108
sg53
I0
sg57
g5
(g9
S'\\4\x81$\xfe\xc8%@'
p1109
tp1110
Rp1111
sg61
g5
(g9
S'\x18w\x03\xdaB=-@'
p1112
tp1113
Rp1114
sg62
g16
sg63
g5
(g9
S'\xfaM\x92Z\x82i(@'
p1115
tp1116
Rp1117
sg67
I200000
sg68
I1008941
sg69
g16
sg70
g16
sg71
g5
(g9
S"'\x8az\xe2\xda\xd3\xef\xbf"
p1118
tp1119
Rp1120
sg75
I2234774
sg76
I407503
sg77
I182245
sg78
g5
(g9
S'A\x85\x99Y\xea\xd5)@'
p1121
tp1122
Rp1123
sg82
I2692324
sg83
I0
sg87
I601438
sg88
g5
(g9
S'\xbc\xa2RS\x11@\xd5\xbf'
p1124
tp1125
Rp1126
sg92
g5
(g9
S'&\xbfW0\xe99(@'
p1127
tp1128
Rp1129
ssS'HICKERSON GARY J'
p1130
(dp1131
g3
I1320
sg4
g5
(g9
S'\xa0\x80\x9b\x9e\x99\xd0H?'
p1132
tp1133
Rp1134
sg15
g16
sg17
g5
(g9
S'H\x13\xb6\xa6\xf4\x18-@'
p1135
tp1136
Rp1137
sg21
I98849
sg22
g5
(g9
S'\xf9M\r\xbc\xbe\xdb\xe5?'
p1138
tp1139
Rp1140
sg26
I00
sg27
g5
(g9
S"1\xaaE\xc7\xb0\x00'@"
p1141
tp1142
Rp1143
sg31
g16
sg32
g5
(g9
S'6\x91\x98\x92\xd0&\xb3\xbf'
p1144
tp1145
Rp1146
sg36
S'gary.hickerson@enron.com'
p1147
sg38
I36
sg39
g5
(g9
S'"\xa1-\x0e/\xf7\x9d?'
p1148
tp1149
Rp1150
sg43
I0
sg44
g16
sg45
I900
sg46
g16
sg47
I27
sg48
I1936
sg49
g5
(g9
S'k\x13\x92\x1ey\xfe)@'
p1151
tp1152
Rp1153
sg53
g5
(g9
S'x\xa76\xc3\xeafQ?'
p1154
tp1155
Rp1156
sg57
g5
(g9
S'CT\xfc6\x05F\x1e@'
p1157
tp1158
Rp1159
sg61
g5
(g9
S'|\xe3\xbd\x08IJ&@'
p1160
tp1161
Rp1162
sg62
g16
sg63
g5
(g9
S'9J!\x1b9\xb1,@'
p1163
tp1164
Rp1165
sg67
I1700000
sg68
I441096
sg69
I40
sg70
I1
sg71
g5
(g9
S'unX~\tj\xec\xbf'
p1166
tp1167
Rp1168
sg75
I69223
sg76
I441096
sg77
I211788
sg78
g5
(g9
S'k\x13\x92\x1ey\xfe)@'
p1169
tp1170
Rp1171
sg82
I2081796
sg83
g5
(g9
S'+w2\xa9X\x15\xed?'
p1172
tp1173
Rp1174
sg87
g16
sg88
g5
(g9
S'A\x81\x9eE\x9c\xf0\xe1\xbf'
p1175
tp1176
Rp1177
sg92
g5
(g9
S'|iw\xa3\xd4\x86(@'
p1178
tp1179
Rp1180
ssS'KOPPER MICHAEL J'
p1181
(dp1182
g3
g16
sg4
I0
sg15
g16
sg17
g5
(g9
S'\xa5\xd2\xb75\x05\x95-@'
p1183
tp1184
Rp1185
sg21
I118134
sg22
I0
sg26
I01
sg27
g5
(g9
S"\xb39,<\xf1['@"
p1186
tp1187
Rp1188
sg31
g16
sg32
g5
(g9
S'p\xd4Q\x9a\x05\x92\xa6?'
p1189
tp1190
Rp1191
sg36
S'michael.kopper@enron.com'
p1192
sg38
I41
sg39
I0
sg43
I0
sg44
g16
sg45
g16
sg46
g16
sg47
g16
sg48
I907502
sg49
g5
(g9
S'U\x18\x1b\xe2\xd1\x99+@'
p1193
tp1194
Rp1195
sg53
I0
sg57
g5
(g9
S'\xc6@\xde\xd0\xd8o+@'
p1196
tp1197
Rp1198
sg61
g5
(g9
S'\xc5_\x8e\xdbE\x9e*@'
p1199
tp1200
Rp1201
sg62
g16
sg63
g5
(g9
S'8\x95q\xbaJ/+@'
p1202
tp1203
Rp1204
sg67
I800000
sg68
I985032
sg69
g16
sg70
g16
sg71
g5
(g9
S'\x18\xe8d{\xb5\x8a\xe4\xbf'
p1205
tp1206
Rp1207
sg75
I602671
sg76
I985032
sg77
I224305
sg78
g5
(g9
S'U\x18\x1b\xe2\xd1\x99+@'
p1208
tp1209
Rp1210
sg82
I2652612
sg83
I0
sg87
g16
sg88
g5
(g9
S'\xf8{\xb1\x16\x11\x14\xd3\xbf'
p1211
tp1212
Rp1213
sg92
g5
(g9
S'\xcd?\x1d\xeb:\xa4(@'
p1214
tp1215
Rp1216
ssS'LEFF DANIEL P'
p1217
(dp1218
g3
I2822
sg4
g5
(g9
S'\xd8Q\x89^%Et?'
p1219
tp1220
Rp1221
sg15
g16
sg17
g5
(g9
S'\x12\xfdw\xeeA\x97-@'
p1222
tp1223
Rp1224
sg21
g16
sg22
g5
(g9
S'\xa67\xe89S\xd4\xe5?'
p1225
tp1226
Rp1227
sg26
I00
sg27
I0
sg31
g16
sg32
g5
(g9
S'\x1e\xa9\x94\xa32)\xd5?'
p1228
tp1229
Rp1230
sg36
S'dan.leff@enron.com'
p1231
sg38
I42
sg39
g5
(g9
S'#\x9a,\xc1M\x82\x97?'
p1232
tp1233
Rp1234
sg43
I0
sg44
g16
sg45
I2672
sg46
g16
sg47
I63
sg48
I3083
sg49
g5
(g9
S'\x9f\xab\\\xd34\x97)@'
p1235
tp1236
Rp1237
sg53
g5
(g9
S'\xc4oP\x0b\xe0\xc6t?'
p1238
tp1239
Rp1240
sg57
g5
(g9
S'\xf7\x02n\xad;\x11 @'
p1241
tp1242
Rp1243
sg61
g5
(g9
S'A\xfb\x1b\x9b/I,@'
p1244
tp1245
Rp1246
sg62
g16
sg63
g5
(g9
S'\xa0\xff\x8f\x99\x8a\xa1+@'
p1247
tp1248
Rp1249
sg67
I1000000
sg68
I360528
sg69
I67
sg70
I14
sg71
g5
(g9
S'\x18\x0cu[\xd0\xbf\xe5\xbf'
p1250
tp1251
Rp1252
sg75
I1387399
sg76
I360528
sg77
I273746
sg78
g5
(g9
S'\x9f\xab\\\xd34\x97)@'
p1253
tp1254
Rp1255
sg82
I2664228
sg83
g5
(g9
S'\xc0\xc4\x82TH.\xe7?'
p1256
tp1257
Rp1258
sg87
g16
sg88
g5
(g9
S'`\xe1>/\x138\x8c?'
p1259
tp1260
Rp1261
sg92
g5
(g9
S'$1\x81\xaa7\n)@'
p1262
tp1263
Rp1264
ssS'LAVORATO JOHN J'
p1265
(dp1266
g3
I7259
sg4
g5
(g9
S'*\xe6+\xcf\xba2\xac?'
p1267
tp1268
Rp1269
sg15
g16
sg17
g5
(g9
S'\x0fOI\xfe\xe7(0@'
p1270
tp1271
Rp1272
sg21
I49537
sg22
g5
(g9
S'nC\xdax1\xad\xe1?'
p1273
tp1274
Rp1275
sg26
I00
sg27
g5
(g9
S'\xe1\x1f\x1c\x99\xf6\x9e%@'
p1276
tp1277
Rp1278
sg31
g16
sg32
g5
(g9
S'\x9c\xd1m\x96A\xb1\xa2\xbf'
p1279
tp1280
Rp1281
sg36
S'john.lavorato@enron.com'
p1282
sg38
I43
sg39
g5
(g9
S'L\x83\x7f\x137\xc0\xaa?'
p1283
tp1284
Rp1285
sg43
g5
(g9
S'\xab\xa3\xe8\nH{.@'
p1286
tp1287
Rp1288
sg44
g16
sg45
I3962
sg46
g16
sg47
I2585
sg48
I1552
sg49
g5
(g9
S'\x9e|I\xc8h\xea.@'
p1289
tp1290
Rp1291
sg53
g5
(g9
S'0%\x81\xe1\x8e\x9d\xb4?'
p1292
tp1293
Rp1294
sg57
g5
(g9
S'\xf0hb\x88\xa2c\x1d@'
p1295
tp1296
Rp1297
sg61
g5
(g9
S'h\xb8O.i\r-@'
p1298
tp1299
Rp1300
sg62
g16
sg63
g5
(g9
S'}\xea^)7\xca/@'
p1301
tp1302
Rp1303
sg67
I8000000
sg68
I5167144
sg69
I528
sg70
I411
sg71
g5
(g9
S'\xadn0\xdf`\xb3\xf0\xbf'
p1304
tp1305
Rp1306
sg75
I2035380
sg76
I1008149
sg77
I339288
sg78
g5
(g9
S'3\x95\x88`\xb2\xa5+@'
p1307
tp1308
Rp1309
sg82
I10425757
sg83
g5
(g9
S'\xbe\xe2\xdbIN\xca\xc7?'
p1310
tp1311
Rp1312
sg87
I4158995
sg88
g5
(g9
S'\xea\x8a&>\xee\xb0\xd7\xbf'
p1313
tp1314
Rp1315
sg92
g5
(g9
S'\xd2\xcc\x88\x17\x1ex)@'
p1316
tp1317
Rp1318
ssS'BERBERIAN DAVID'
p1319
(dp1320
g3
g16
sg4
I0
sg15
g16
sg17
g5
(g9
S'\xd8\xbc\xfa\xb2\xa8\xad(@'
p1321
tp1322
Rp1323
sg21
I11892
sg22
I0
sg26
I00
sg27
g5
(g9
S'\xda\xad\xef\xfei\xc4"@'
p1324
tp1325
Rp1326
sg31
g16
sg32
g5
(g9
S'\xdb\x19\xd7\x08t\x10\xc8\xbf'
p1327
tp1328
Rp1329
sg36
S'david.berberian@enron.com'
p1330
sg38
I44
sg39
I0
sg43
g5
(g9
S'sVOZ\xee\x99,@'
p1331
tp1332
Rp1333
sg44
g16
sg45
g16
sg46
g16
sg47
g16
sg48
g16
sg49
g5
(g9
S'b_n\x86_u-@'
p1334
tp1335
Rp1336
sg53
I0
sg57
I0
sg61
I0
sg62
g16
sg63
I0
sg67
g16
sg68
I2493616
sg69
g16
sg70
g16
sg71
g5
(g9
S'\x0cZ\\e#\x07\x04@'
p1337
tp1338
Rp1339
sg75
g16
sg76
I869220
sg77
I216582
sg78
g5
(g9
S'Fh7\xad\xc7Y+@'
p1340
tp1341
Rp1342
sg82
I228474
sg83
I0
sg87
I1624396
sg88
g5
(g9
S'}\xe8\xa8\x9e\xb9E\xf5?'
p1343
tp1344
Rp1345
sg92
g5
(g9
S'\x97\xa3\x8f{J\x92(@'
p1346
tp1347
Rp1348
ssS'DETMERING TIMOTHY J'
p1349
(dp1350
g3
g16
sg4
I0
sg15
I875307
sg17
g5
(g9
S'z\xf1\xb7{\xd7\x00,@'
p1351
tp1352
Rp1353
sg21
I52255
sg22
I0
sg26
I00
sg27
g5
(g9
S'\xb2\xae\x15\xe7O\xba%@'
p1354
tp1355
Rp1356
sg31
I-775241
sg32
g5
(g9
S'\xb1l8\x04\xb6\x00\xd7\xbf'
p1357
tp1358
Rp1359
sg36
S'timothy.detmering@enron.com'
p1360
sg38
I45
sg39
I0
sg43
g5
(g9
S'\xefx\xdbW\x84\x0b-@'
p1361
tp1362
Rp1363
sg44
I-315068
sg45
g16
sg46
g16
sg47
g16
sg48
I1105
sg49
g5
(g9
S'\xefx\xdbW\x84\x0b-@'
p1364
tp1365
Rp1366
sg53
I0
sg57
g5
(g9
S'2i\x91t\xc8\x07\x1c@'
p1367
tp1368
Rp1369
sg61
g5
(g9
S'\x9c\xdb\x92)\x0f\xe0)@'
p1370
tp1371
Rp1372
sg62
g16
sg63
g5
(g9
S'\xfb\x02B\xbbp\xeb)@'
p1373
tp1374
Rp1375
sg67
I425000
sg68
I2027865
sg69
g16
sg70
g16
sg71
g5
(g9
S'h$Y[~\xab\xec?'
p1376
tp1377
Rp1378
sg75
I415657
sg76
I315068
sg77
I210500
sg78
g5
(g9
S'\x864\xee\xca2R)@'
p1379
tp1380
Rp1381
sg82
I1204583
sg83
I0
sg87
I2027865
sg88
g5
(g9
S'\xcd\x1e?\x0c? \xf4\xbf'
p1382
tp1383
Rp1384
sg92
g5
(g9
S'\xd4)]\x15\xb5\x83(@'
p1385
tp1386
Rp1387
ssS'GOLD JOSEPH'
p1388
(dp1389
g3
g16
sg4
I0
sg15
g16
sg17
g5
(g9
S'8\xeciU\xbd(-@'
p1390
tp1391
Rp1392
sg21
g16
sg22
I0
sg26
I00
sg27
I0
sg31
g16
sg32
g5
(g9
S"H'\xc4\xf9\xa7(\xab?"
p1393
tp1394
Rp1395
sg36
S'joe.gold@enron.com'
p1396
sg38
I48
sg39
I0
sg43
g5
(g9
S'\x05\xf2\x03\xc1 \xf9)@'
p1397
tp1398
Rp1399
sg44
g16
sg45
g16
sg46
g16
sg47
g16
sg48
I819288
sg49
g5
(g9
S'^\x9e\xdc\xe8\xb2^+@'
p1400
tp1401
Rp1402
sg53
I0
sg57
g5
(g9
S'\x08LOa};+@'
p1403
tp1404
Rp1405
sg61
g5
(g9
S'-%\x9d->A)@'
p1406
tp1407
Rp1408
sg62
g16
sg63
g5
(g9
S'\xc4X\x06\x89?\x0e+@'
p1409
tp1410
Rp1411
sg67
I750000
sg68
I877611
sg69
g16
sg70
g16
sg71
g5
(g9
S'\x9f\x84\x840\xf7\xf6\xe8\xbf'
p1412
tp1413
Rp1414
sg75
I304805
sg76
I441096
sg77
I272880
sg78
g5
(g9
S'k\x13\x92\x1ey\xfe)@'
p1415
tp1416
Rp1417
sg82
I2146973
sg83
I0
sg87
I436515
sg88
g5
(g9
S'\xd9\x8e,\xcd{\x90\xb5\xbf'
p1418
tp1419
Rp1420
sg92
g5
(g9
S'\x1e\xcb>\\\x98\x08)@'
p1421
tp1422
Rp1423
ssS'BANNANTINE JAMES M'
p1424
(dp1425
g3
I566
sg4
g5
(g9
S'\x00\x00\x00\x00\x00\x00\x00\x00'
p1426
tp1427
Rp1428
sg15
g16
sg17
g5
(g9
S'\x98\xe3\xc0\xab\xbat+@'
p1429
tp1430
Rp1431
sg21
I56301
sg22
g5
(g9
S'\x87\xf57\xe4&d\xe5?'
p1432
tp1433
Rp1434
sg26
I00
sg27
g5
(g9
S'24v\xd2~\xe0%@'
p1435
tp1436
Rp1437
sg31
I-5104
sg32
g5
(g9
S'pQ\x95F\xc7 \x96?'
p1438
tp1439
Rp1440
sg36
S'james.bannantine@enron.com'
p1441
sg38
I49
sg39
g5
(g9
S'\xa9N1R\xb8@\xb0?'
p1442
tp1443
Rp1444
sg43
g5
(g9
S'\x89r~\xc92m.@'
p1445
tp1446
Rp1447
sg44
I-560222
sg45
I465
sg46
g16
sg47
I29
sg48
I864523
sg49
g5
(g9
S'\x0c\xb6I*\xeb\xf1.@'
p1448
tp1449
Rp1450
sg53
g5
(g9
S'\x00\x00\x00\x00\x00\x00\x00\x00'
p1451
tp1452
Rp1453
sg57
g5
(g9
S'\x97)\xa0{\x01W+@'
p1454
tp1455
Rp1456
sg61
I0
sg62
g16
sg63
I0
sg67
g16
sg68
I5243487
sg69
I39
sg70
I0
sg71
g5
(g9
S'\xf61\x9c\xc2y\xd9\xec\xbf'
p1457
tp1458
Rp1459
sg75
g16
sg76
I1757552
sg77
I477
sg78
g5
(g9
S'\x87\xb3\xac\xf9D\xc2,@'
p1460
tp1461
Rp1462
sg82
I916197
sg83
g5
(g9
S'Ly\xa6\xd6QE\xeb?'
p1463
tp1464
Rp1465
sg87
I4046157
sg88
g5
(g9
S'\xe2\xdb\xc5,\x80\xaf\xb4?'
p1466
tp1467
Rp1468
sg92
g5
(g9
S'\xdb\x9fgq\x89\xab\x18@'
p1469
tp1470
Rp1471
ssS'SHAPIRO RICHARD S'
p1472
(dp1473
g3
I15149
sg4
g5
(g9
S'\xd6;\xcd^\x83\x89q?'
p1474
tp1475
Rp1476
sg15
g16
sg17
g5
(g9
S'\x19ofy0\xbe+@'
p1477
tp1478
Rp1479
sg21
I137767
sg22
g5
(g9
S'\xee\x9dS\x03Z\xf8\xe4?'
p1480
tp1481
Rp1482
sg26
I00
sg27
g5
(g9
S"D\xce \xce\xa8\xaa'@"
p1483
tp1484
Rp1485
sg31
g16
sg32
g5
(g9
S'\xec\x85\x80\t&\x18\xc8\xbf'
p1486
tp1487
Rp1488
sg36
S'richard.shapiro@enron.com'
p1489
sg38
I51
sg39
g5
(g9
S'\xff\xd1\xce[\x19{r?'
p1490
tp1491
Rp1492
sg43
g5
(g9
S'\xde\xf8\x14\x99\xa4\xa2*@'
p1493
tp1494
Rp1495
sg44
g16
sg45
I4527
sg46
g16
sg47
I1215
sg48
I705
sg49
g5
(g9
S'\x9f9\xc7\x9f\xd7\x9a+@'
p1496
tp1497
Rp1498
sg53
g5
(g9
S'fav\xd48U\x8c?'
p1499
tp1500
Rp1501
sg57
g5
(g9
S'k\x1co4\x98;\x1a@'
p1502
tp1503
Rp1504
sg61
I0
sg62
g16
sg63
g5
(g9
S'\xd0i\x7f\x05\xfb\xc4*@'
p1505
tp1506
Rp1507
sg67
I650000
sg68
I987001
sg69
I74
sg70
I65
sg71
g5
(g9
S"\xbb\xd0\xf6J'0\xe7?"
p1508
tp1509
Rp1510
sg75
g16
sg76
I379164
sg77
I269076
sg78
g5
(g9
S'\n\xdd\x13\xc0\x02\xb1)@'
p1511
tp1512
Rp1513
sg82
I1057548
sg83
g5
(g9
S'\xa3\x9d\x0c\xd8RE\xae?'
p1514
tp1515
Rp1516
sg87
I607837
sg88
g5
(g9
S'\x91\xd7$\xd2~!\xf9\xbf'
p1517
tp1518
Rp1519
sg92
g5
(g9
S'\xba%\rVh\x01)@'
p1520
tp1521
Rp1522
ssS'SHERRIFF JOHN R'
p1523
(dp1524
g3
I3187
sg4
g5
(g9
S'\xe8\xd0\x8b\xfa4t}?'
p1525
tp1526
Rp1527
sg15
g16
sg17
g5
(g9
S'\x94\xfc7w\x8c\x90.@'
p1528
tp1529
Rp1530
sg21
g16
sg22
g5
(g9
S'\xc6\xa04o\x86\xba\xe5?'
p1531
tp1532
Rp1533
sg26
I00
sg27
I0
sg31
g16
sg32
g5
(g9
S'"\xac<\xb1\xc7P\xe3\xbf'
p1534
tp1535
Rp1536
sg36
S'john.sherriff@enron.com'
p1537
sg38
I52
sg39
g5
(g9
S'\xd57\x08\xc5\xfci\x81?'
p1538
tp1539
Rp1540
sg43
g5
(g9
S'\xfa\x9aB\xfc\x80\xd8,@'
p1541
tp1542
Rp1543
sg44
g16
sg45
I2103
sg46
g16
sg47
I92
sg48
I1852186
sg49
g5
(g9
S'\xf8\xf4\xeap\x95\xe9-@'
p1544
tp1545
Rp1546
sg53
g5
(g9
S'a\x02\n\xce\x91\xc0\x85?'
p1547
tp1548
Rp1549
sg57
g5
(g9
S'd\x1f~\xff\x1e\xdd,@'
p1550
tp1551
Rp1552
sg61
g5
(g9
S'\x86\x97z\x83\x8cs*@'
p1553
tp1554
Rp1555
sg62
g16
sg63
g5
(g9
S'c\xfc\xf5\xb8#q,@'
p1556
tp1557
Rp1558
sg67
I1500000
sg68
I3128982
sg69
I28
sg70
I23
sg71
g5
(g9
S'\xa72\x97\x9eg8\xee\xbf'
p1559
tp1560
Rp1561
sg75
I554422
sg76
I1293424
sg77
I428780
sg78
g5
(g9
S'\x03\x82\xe1\x80F%,@'
p1562
tp1563
Rp1564
sg82
I4335388
sg83
g5
(g9
S'V\x15\xd1\xd9G\x01\xd1?'
p1565
tp1566
Rp1567
sg87
I1835558
sg88
g5
(g9
S'O\xcaNr\xe6\xed\xd3\xbf'
p1568
tp1569
Rp1570
sg92
g5
(g9
S'\xa7A\xf9X\xf9\xef)@'
p1571
tp1572
Rp1573
ssS'SHELBY REX'
p1574
(dp1575
g3
I225
sg4
g5
(g9
S'G=\xec3\xeb\xe7\xae?'
p1576
tp1577
Rp1578
sg15
g16
sg17
g5
(g9
S'\xefO\xc2%m\x05-@'
p1579
tp1580
Rp1581
sg21
I22884
sg22
g5
(g9
S'\xdc \xe3\x90\xa8\xb9\xe3?'
p1582
tp1583
Rp1584
sg26
I01
sg27
g5
(g9
S'_\xa4\xfd\x10\x8e\x13$@'
p1585
tp1586
Rp1587
sg31
I-4167
sg32
g5
(g9
S'4U!\xf4\x15\x18\xf8\xbf'
p1588
tp1589
Rp1590
sg36
S'rex.shelby@enron.com'
p1591
sg38
I53
sg39
g5
(g9
S'jt\x10\xf6k\x9c\xa8?'
p1592
tp1593
Rp1594
sg43
g5
(g9
S'sVOZ\xee\x99,@'
p1595
tp1596
Rp1597
sg44
g16
sg45
I91
sg46
g16
sg47
I39
sg48
I1573324
sg49
g5
(g9
S'b_n\x86_u-@'
p1598
tp1599
Rp1600
sg53
g5
(g9
S'f\x8b\xbe \xb8\xb3\xbc?'
p1601
tp1602
Rp1603
sg57
g5
(g9
S'f\xd0\x042\x93\x89,@'
p1604
tp1605
Rp1606
sg61
I0
sg62
g16
sg63
g5
(g9
S'\xfaM\x92Z\x82i(@'
p1607
tp1608
Rp1609
sg67
I200000
sg68
I2493616
sg69
I13
sg70
I14
sg71
g5
(g9
S'\xe6|\xa4\xee\xb6;\xd5\xbf'
p1610
tp1611
Rp1612
sg75
g16
sg76
I869220
sg77
I211844
sg78
g5
(g9
S'Fh7\xad\xc7Y+@'
p1613
tp1614
Rp1615
sg82
I2003885
sg83
g5
(g9
S'\x91\xdb4\x11bi\xd2?'
p1616
tp1617
Rp1618
sg87
I1624396
sg88
g5
(g9
S'\xae\x9e\x8c\x9bj\xf7\xf4?'
p1619
tp1620
Rp1621
sg92
g5
(g9
S'-\xd1\x99J\xf7\x86(@'
p1622
tp1623
Rp1624
ssS'DEFFNER JOSEPH M'
p1625
(dp1626
g3
I714
sg4
g5
(g9
S'\x9c_\xbfQ\xfb\xe1v?'
p1627
tp1628
Rp1629
sg15
g16
sg17
g5
(g9
S'\xf6>\x08*\x91\x02,@'
p1630
tp1631
Rp1632
sg21
I41626
sg22
g5
(g9
S'\x83\xb4\xe0\xd7I\xa4\xe4?'
p1633
tp1634
Rp1635
sg26
I00
sg27
g5
(g9
S'\x97XM\xbd\xe0E%@'
p1636
tp1637
Rp1638
sg31
g16
sg32
g5
(g9
S'l}\x01;\x8a\xdf\xc1\xbf'
p1639
tp1640
Rp1641
sg36
S'joseph.deffner@enron.com'
p1642
sg38
I55
sg39
g5
(g9
S'\x89d\xf3\x9f\xcdo\xc1?'
p1643
tp1644
Rp1645
sg43
g5
(g9
S'\x12\xc0\x16\xbc\xa2\x86#@'
p1646
tp1647
Rp1648
sg44
g16
sg45
I552
sg46
g16
sg47
I74
sg48
I25553
sg49
g5
(g9
S"\xc4\x9c\xd6\x88\xba\xf4'@"
p1649
tp1650
Rp1651
sg53
g5
(g9
S'!\xbc\x04\x9aDXx?'
p1652
tp1653
Rp1654
sg57
g5
(g9
S'\xe7\x17\xe2\x80\tL$@'
p1655
tp1656
Rp1657
sg61
g5
(g9
S'\xb3q\xdc~#r)@'
p1658
tp1659
Rp1660
sg62
g16
sg63
g5
(g9
S'[\xee\xe7\xa9\xff\x9b*@'
p1661
tp1662
Rp1663
sg67
I600000
sg68
I159211
sg69
I115
sg70
I4
sg71
g5
(g9
S'tk\x9am\xd6f\xea\xbf'
p1664
tp1665
Rp1666
sg75
I335349
sg76
I141833
sg77
I206121
sg78
g5
(g9
S"g\xf8\xa99\x8d\xb9'@"
p1667
tp1668
Rp1669
sg82
I1208649
sg83
g5
(g9
S'\nn\x8d\x84}\x01\xee?'
p1670
tp1671
Rp1672
sg87
I17378
sg88
g5
(g9
S'\xa0\x85\x06x\xb0\r\xb8\xbf'
p1673
tp1674
Rp1675
sg92
g5
(g9
S'8\n\xc3\xa6\xf1x(@'
p1676
tp1677
Rp1678
ssS'KISHKILL JOSEPH G'
p1679
(dp1680
g3
g16
sg4
I0
sg15
g16
sg17
g5
(g9
S'\xb3l\xc2\x10~\xee*@'
p1681
tp1682
Rp1683
sg21
I116335
sg22
I0
sg26
I00
sg27
g5
(g9
S"\x9d\xa1\xd5\xda\x15T'@"
p1684
tp1685
Rp1686
sg31
I-51042
sg32
g5
(g9
S'\x9a6\x11g\xd4K\xe4\xbf'
p1687
tp1688
Rp1689
sg36
S'joe.kishkill@enron.com'
p1690
sg38
I56
sg39
I0
sg43
I0
sg44
g16
sg45
g16
sg46
g16
sg47
g16
sg48
I465357
sg49
g5
(g9
S'\xae\t\xaf\xd0\xd4\xb2+@'
p1691
tp1692
Rp1693
sg53
I0
sg57
g5
(g9
S'\x00X\x82\x04\xe3\x19*@'
p1694
tp1695
Rp1696
sg61
I0
sg62
g16
sg63
I0
sg67
g16
sg68
I1034346
sg69
g16
sg70
g16
sg71
g5
(g9
S'\xd8c\xfa\x8d\xb8K\xf8\xbf'
p1697
tp1698
Rp1699
sg75
g16
sg76
I1034346
sg77
I174246
sg78
g5
(g9
S'\xae\t\xaf\xd0\xd4\xb2+@'
p1700
tp1701
Rp1702
sg82
I704896
sg83
I0
sg87
g16
sg88
g5
(g9
S'\x7f\x88Z\x8b\xc3\xb7\xe1\xbf'
p1703
tp1704
Rp1705
sg92
g5
(g9
S'\xb6M\x86,\xee"(@'
p1706
tp1707
Rp1708
ssS'WHALLEY LAWRENCE G'
p1709
(dp1710
g3
I6019
sg4
g5
(g9
S'\x98\xa3M\x15\xc0Lp?'
p1711
tp1712
Rp1713
sg15
g16
sg17
g5
(g9
S'\xa66\xb9\xceq\xb7.@'
p1714
tp1715
Rp1716
sg21
I57838
sg22
g5
(g9
S'\x7f\xd6Ci[\xcc\xe4?'
p1717
tp1718
Rp1719
sg26
I00
sg27
g5
(g9
S'\x92\xcf\x89\x13I\xee%@'
p1720
tp1721
Rp1722
sg31
g16
sg32
g5
(g9
S'\xc1E6\xbd\xe3\x16\xdf\xbf'
p1723
tp1724
Rp1725
sg36
S'greg.whalley@enron.com'
p1726
sg38
I57
sg39
g5
(g9
S'@\x1a\xe5N\xd4\x90\x9c?'
p1727
tp1728
Rp1729
sg43
g5
(g9
S'\xa5h\x14\xd8-\x02.@'
p1730
tp1731
Rp1732
sg44
g16
sg45
I3920
sg46
g16
sg47
I556
sg48
I301026
sg49
g5
(g9
S'\xdb\x10\xd0\x91\xa1=/@'
p1733
tp1734
Rp1735
sg53
g5
(g9
S'\xab\xfb\r\x86\xc8\xbbw?'
p1736
tp1737
Rp1738
sg57
g5
(g9
S'v/W\xfa\xda:)@'
p1739
tp1740
Rp1741
sg61
g5
(g9
S'\xda\x83\xac\r\x9b4+@'
p1742
tp1743
Rp1744
sg62
g16
sg63
g5
(g9
S'\x02\xa0\xe5\xe8\x07\xd4-@'
p1745
tp1746
Rp1747
sg67
I3000000
sg68
I6079137
sg69
I186
sg70
I24
sg71
g5
(g9
S"\xbc2P\x12'\xd4\xed?"
p1748
tp1749
Rp1750
sg75
I808346
sg76
I2796177
sg77
I510364
sg78
g5
(g9
S'B\xb61\xcb\x01\xb0-@'
p1751
tp1752
Rp1753
sg82
I4677574
sg83
g5
(g9
S'\xaf)v:\x1cx\xd2?'
p1754
tp1755
Rp1756
sg87
I3282960
sg88
g5
(g9
S'\\y\x83\x12IB\xec\xbf'
p1757
tp1758
Rp1759
sg92
g5
(g9
S"\x03\x07\xa6\x7f'I*@"
p1760
tp1761
Rp1762
ssS'MCCONNELL MICHAEL S'
p1763
(dp1764
g3
I3329
sg4
g5
(g9
S'\xba>i\x98\n\x00\xad?'
p1765
tp1766
Rp1767
sg15
g16
sg17
g5
(g9
S'\xb5q\x12\xeb\xbe\x1d-@'
p1768
tp1769
Rp1770
sg21
I81364
sg22
g5
(g9
S'F6<x\xdc\xfa\xdb?'
p1771
tp1772
Rp1773
sg26
I00
sg27
g5
(g9
S'\xbf6$<\x06\x9d&@'
p1774
tp1775
Rp1776
sg31
g16
sg32
g5
(g9
S'\x0cF\x88\xde~i\xcd\xbf'
p1777
tp1778
Rp1779
sg36
S'mike.mcconnell@enron.com'
p1780
sg38
I58
sg39
g5
(g9
S'w\xd7%\xb4w\xcd\x8e?'
p1781
tp1782
Rp1783
sg43
g5
(g9
S'\xd0\x0f\x19x~\x99,@'
p1784
tp1785
Rp1786
sg44
g16
sg45
I2189
sg46
g16
sg47
I2742
sg48
I540
sg49
g5
(g9
S'9\xd0\xd4\xcd\x07\xe5-@'
p1787
tp1788
Rp1789
sg53
g5
(g9
S'!\x15\x99\x02\x93Q\xb3?'
p1790
tp1791
Rp1792
sg57
g5
(g9
S'\x11\xb4\xbb\x19\x91*\x19@'
p1793
tp1794
Rp1795
sg61
g5
(g9
S'\x86\x97z\x83\x8cs*@'
p1796
tp1797
Rp1798
sg62
g16
sg63
g5
(g9
S'.x\x82\x18W\xd2+@'
p1799
tp1800
Rp1801
sg67
I1100000
sg68
I3101279
sg69
I92
sg70
I194
sg71
g5
(g9
S'\xd21\x98\xe5-\xa2\xe6\xbf'
p1802
tp1803
Rp1804
sg75
I554422
sg76
I1478269
sg77
I365038
sg78
g5
(g9
S'\xc7X\x16\xf3\xaai,@'
p1805
tp1806
Rp1807
sg82
I2101364
sg83
g5
(g9
S'M\xc6\xef\x9a\x94\xe5\xa0?'
p1808
tp1809
Rp1810
sg87
I1623010
sg88
g5
(g9
S'\x1a~o\x00w\xbc\xbd\xbf'
p1811
tp1812
Rp1813
sg92
g5
(g9
S'F\xcc~J\x92\x9d)@'
p1814
tp1815
Rp1816
ssS'DELAINEY DAVID W'
p1817
(dp1818
g3
I3093
sg4
g5
(g9
S'\xfd\x95\xb0\xf2r\x01\xc7?'
p1819
tp1820
Rp1821
sg15
g16
sg17
g5
(g9
S'D\x0c\xa1\xf3\x17\xbf.@'
p1822
tp1823
Rp1824
sg21
I86174
sg22
g5
(g9
S'C\xbb\xea\xc5e\x08\xda?'
p1825
tp1826
Rp1827
sg26
I01
sg27
g5
(g9
S'\xc3\xed\xd9nn\xba&@'
p1828
tp1829
Rp1830
sg31
g16
sg32
g5
(g9
S'#\xab\\\xa8\xfan\xdb\xbf'
p1831
tp1832
Rp1833
sg36
S'david.delainey@enron.com'
p1834
sg38
I60
sg39
g5
(g9
S'\x89\xd7\x15\r\xb0\xd1\x85?'
p1835
tp1836
Rp1837
sg43
g5
(g9
S'\xde\x03\x8e;\x02J-@'
p1838
tp1839
Rp1840
sg44
g16
sg45
I2097
sg46
g16
sg47
I3069
sg48
I1661
sg49
g5
(g9
S' \xe7\xbe\\g3.@'
p1841
tp1842
Rp1843
sg53
g5
(g9
S'2\xb5\x80\t\xcek\xc9?'
p1844
tp1845
Rp1846
sg57
g5
(g9
S'\xf9\x9b\xf7\xa9#\xa9\x1d@'
p1847
tp1848
Rp1849
sg61
g5
(g9
S'W\xd4\xcb0\xe4%,@'
p1850
tp1851
Rp1852
sg62
g16
sg63
g5
(g9
S'\x02\xa0\xe5\xe8\x07\xd4-@'
p1853
tp1854
Rp1855
sg67
I3000000
sg68
I3614261
sg69
I66
sg70
I609
sg71
g5
(g9
S'\x19\xcb\x18\xd32R\xe0\xbf'
p1856
tp1857
Rp1858
sg75
I1294981
sg76
I1323148
sg77
I365163
sg78
g5
(g9
S'k\xab\xc1\x8f\xe80,@'
p1859
tp1860
Rp1861
sg82
I4747979
sg83
g5
(g9
S'ps\xe6\t\xbe\xc9\x95?'
p1862
tp1863
Rp1864
sg87
I2291113
sg88
g5
(g9
S'\x94\xec\x1fH\x81\xe4\xd2\xbf'
p1865
tp1866
Rp1867
sg92
g5
(g9
S'\x04{\x93*\xbf\x9d)@'
p1868
tp1869
Rp1870
ssS'SULLIVAN-SHAKLOVITZ COLLEEN'
p1871
(dp1872
g3
g16
sg4
I0
sg15
I181993
sg17
g5
(g9
S'\x1f\x14\x8c)6\xa1+@'
p1873
tp1874
Rp1875
sg21
g16
sg22
I0
sg26
I00
sg27
I0
sg31
g16
sg32
g5
(g9
S'\xeev>\xb2\x18\xab\xee?'
p1876
tp1877
Rp1878
sg36
g16
sg38
I61
sg39
I0
sg43
g5
(g9
S'D\xde\xcc\xed\xdd?,@'
p1879
tp1880
Rp1881
sg44
g16
sg45
g16
sg46
g16
sg47
g16
sg48
I162
sg49
g5
(g9
S'D\xde\xcc\xed\xdd?,@'
p1882
tp1883
Rp1884
sg53
I0
sg57
g5
(g9
S'HJ\x8c\xda\xb2Y\x14@'
p1885
tp1886
Rp1887
sg61
g5
(g9
S'\x86\x97z\x83\x8cs*@'
p1888
tp1889
Rp1890
sg62
g16
sg63
g5
(g9
S"[\xaa\xa2*\x9e\x06'@"
p1891
tp1892
Rp1893
sg67
I100000
sg68
I1362375
sg69
g16
sg70
g16
sg71
g5
(g9
S'e\xf4\x81#\xb6\xf8\xeb\xbf'
p1894
tp1895
Rp1896
sg75
I554422
sg76
g16
sg77
I162779
sg78
I0
sg82
I999356
sg83
I0
sg87
I1362375
sg88
g5
(g9
S'n\xdb\x92;\xaf\x93\xed?'
p1897
tp1898
Rp1899
sg92
g5
(g9
S'#\xba\x9a~\x13\x00(@'
p1900
tp1901
Rp1902
ssS'LINDHOLM TOD A'
p1903
(dp1904
g3
g16
sg4
I0
sg15
I204075
sg17
g5
(g9
S'ej\x86y\xb1]+@'
p1905
tp1906
Rp1907
sg21
I57727
sg22
I0
sg26
I00
sg27
g5
(g9
S'\xfb\x83\x8fIM\xed%@'
p1908
tp1909
Rp1910
sg31
g16
sg32
g5
(g9
S'\xb4\x0f\xa1\xf3\xea\xac\x03@'
p1911
tp1912
Rp1913
sg36
S'tod.lindholm@enron.com'
p1914
sg38
I63
sg39
I0
sg43
g5
(g9
S'9\xfb a\xb1\x80-@'
p1915
tp1916
Rp1917
sg44
g16
sg45
g16
sg46
g16
sg47
g16
sg48
I2630
sg49
g5
(g9
S';\xd5\xef\x99\xdf\xde-@'
p1918
tp1919
Rp1920
sg53
I0
sg57
g5
(g9
S'\x0c\x94\xfc\x9c\xbb\x7f\x1f@'
p1921
tp1922
Rp1923
sg61
g5
(g9
S'h\xae\x89 $%(@'
p1924
tp1925
Rp1926
sg62
g16
sg63
g5
(g9
S'\xfaM\x92Z\x82i(@'
p1927
tp1928
Rp1929
sg67
I200000
sg68
I3064208
sg69
g16
sg70
g16
sg71
g5
(g9
S'e\x18a\xc3]\r\xf2?'
p1930
tp1931
Rp1932
sg75
I175000
sg76
I514847
sg77
I236457
sg78
g5
(g9
S'\xbd\xed]\xcc\xa1M*@'
p1933
tp1934
Rp1935
sg82
I875889
sg83
I0
sg87
I2549361
sg88
g5
(g9
S'\xf8={\xd4\xdcn\n@'
p1936
tp1937
Rp1938
sg92
g5
(g9
S'\t\x1b\xe1:>\xbf(@'
p1939
tp1940
Rp1941
ssS'LAY KENNETH L'
p1942
(dp1943
g3
I4273
sg4
g5
(g9
S'r\x89\xbd\x95\xff\x9dn?'
p1944
tp1945
Rp1946
sg15
I202911
sg17
g5
(g9
S'\xe2\xc0q\x1d\xa6t2@'
p1947
tp1948
Rp1949
sg21
I99832
sg22
g5
(g9
S'\xaa\\\x165\xf8\x0b\xe6?'
p1950
tp1951
Rp1952
sg26
I01
sg27
g5
(g9
S"_\xd7\xc8\xc7\xc1\x05'@"
p1953
tp1954
Rp1955
sg31
I-300000
sg32
g5
(g9
S'\xd2\xa5\xba\x8b,#\xda\xbf'
p1956
tp1957
Rp1958
sg36
S'kenneth.lay@enron.com'
p1959
sg38
I65
sg39
g5
(g9
S'=CO\x12\x11\xd2\x9c?'
p1960
tp1961
Rp1962
sg43
g5
(g9
S'f s\xf7 Z1@'
p1963
tp1964
Rp1965
sg44
g16
sg45
I2411
sg46
I81525000
sg47
I36
sg48
I10359729
sg49
g5
(g9
S'\xed\xf5 \xb2\xa6\xb51@'
p1966
tp1967
Rp1968
sg53
g5
(g9
S',\x13\xa9\xd1\xbe\x9ey?'
p1969
tp1970
Rp1971
sg57
g5
(g9
S"OH\x96\x9fG'0@"
p1972
tp1973
Rp1974
sg61
g5
(g9
S'[2-)a1.@'
p1975
tp1976
Rp1977
sg62
g16
sg63
g5
(g9
S'\xebJV\xef\xd8\x85/@'
p1978
tp1979
Rp1980
sg67
I7000000
sg68
I49110078
sg69
I123
sg70
I16
sg71
g5
(g9
S' \x97\xd5\xee\xff\x8d\xec\xbf'
p1981
tp1982
Rp1983
sg75
I3600000
sg76
I14761694
sg77
I1072321
sg78
g5
(g9
S'_]9\x8b\xee\x810@'
p1984
tp1985
Rp1986
sg82
I103559793
sg83
g5
(g9
S'[<\x9dV#\xc4\xf7?'
p1987
tp1988
Rp1989
sg87
I34348384
sg88
g5
(g9
S'\x18\xf8\x11\xce;.\xb9\xbf'
p1990
tp1991
Rp1992
sg92
g5
(g9
S'z#&\xc3J\xc5+@'
p1993
tp1994
Rp1995
ssS'BUTTS ROBERT H'
p1996
(dp1997
g3
g16
sg4
I0
sg15
g16
sg17
g5
(g9
S'\xb88\x9c1\x8e\x1c,@'
p1998
tp1999
Rp2000
sg21
I9410
sg22
I0
sg26
I00
sg27
g5
(g9
S'\xbf\x83\xe9\xf6\x8eL"@'
p2001
tp2002
Rp2003
sg31
I-75000
sg32
g5
(g9
S'\xc8\x97\xcb`\x84i\x92\xbf'
p2004
tp2005
Rp2006
sg36
S'bob.butts@enron.com'
p2007
sg38
I66
sg39
I0
sg43
I0
sg44
g16
sg45
g16
sg46
g16
sg47
g16
sg48
I150656
sg49
g5
(g9
S'\xc1\xa6\xd8ex\xe2)@'
p2008
tp2009
Rp2010
sg53
I0
sg57
g5
(g9
S"\xd9\xea\xccBs\xd8'@"
p2011
tp2012
Rp2013
sg61
g5
(g9
S'h\xae\x89 $%(@'
p2014
tp2015
Rp2016
sg62
g16
sg63
g5
(g9
S'\xc4X\x06\x89?\x0e+@'
p2017
tp2018
Rp2019
sg67
I750000
sg68
I417619
sg69
g16
sg70
g16
sg71
g5
(g9
S'\x10\x8d\xb4\xb9\xdb\x99\xee\xbf'
p2020
tp2021
Rp2022
sg75
I175000
sg76
I417619
sg77
I261516
sg78
g5
(g9
S'\xc1\xa6\xd8ex\xe2)@'
p2023
tp2024
Rp2025
sg82
I1271582
sg83
I0
sg87
g16
sg88
g5
(g9
S'\xc7E\xe2\xe6\x8e\xf4\xd4\xbf'
p2026
tp2027
Rp2028
sg92
g5
(g9
S'0\x11i\xfe\xd0\xf2(@'
p2029
tp2030
Rp2031
ssS'OLSON CINDY K'
p2032
(dp2033
g3
I1184
sg4
g5
(g9
S'\xeb/Q\x8ep\xc8\x89?'
p2034
tp2035
Rp2036
sg15
I77716
sg17
g5
(g9
S'7Uq\xdcJ0,@'
p2037
tp2038
Rp2039
sg21
I63791
sg22
g5
(g9
S'P/\xb2\x8b\x19\x80\xe5?'
p2040
tp2041
Rp2042
sg26
I00
sg27
g5
(g9
S'U\xdf\xe5\xb0q &@'
p2043
tp2044
Rp2045
sg31
g16
sg32
g5
(g9
S'\xa4Sc\xd5\x12\xc1\xd9\xbf'
p2046
tp2047
Rp2048
sg36
S'cindy.olson@enron.com'
p2049
sg38
I67
sg39
g5
(g9
S'\xab\xeb\xfa\xf4\xdbo\x90?'
p2050
tp2051
Rp2052
sg43
g5
(g9
S'\x18X\x9c)\xe6\x9d,@'
p2053
tp2054
Rp2055
sg44
g16
sg45
I856
sg46
g16
sg47
I52
sg48
I972
sg49
g5
(g9
S'E\xa2J\xe4\x17\x8c-@'
p2056
tp2057
Rp2058
sg53
g5
(g9
S'/\xa3\xe9Uv\x18\x91?'
p2059
tp2060
Rp2061
sg57
g5
(g9
S'I\xd2\x16\xd9u\x84\x1b@'
p2062
tp2063
Rp2064
sg61
g5
(g9
S"[\xaa\xa2*\x9e\x06'@"
p2065
tp2066
Rp2067
sg62
g16
sg63
g5
(g9
S'\xc4X\x06\x89?\x0e+@'
p2068
tp2069
Rp2070
sg67
I750000
sg68
I2606763
sg69
I20
sg70
I15
sg71
g5
(g9
S'/n\xd7v8\x07\xe3\xbf'
p2071
tp2072
Rp2073
sg75
I100000
sg76
I969729
sg77
I329078
sg78
g5
(g9
S'\xd3Z\\\xa0\xcd\x91+@'
p2074
tp2075
Rp2076
sg82
I1321557
sg83
g5
(g9
S'\xab)\xd0y\xb8\xd3\xd4?'
p2077
tp2078
Rp2079
sg87
I1637034
sg88
g5
(g9
S'\xbd\xb2\x94H4\xb1\xb0\xbf'
p2080
tp2081
Rp2082
sg92
g5
(g9
S'S\x9a\xa8@yh)@'
p2083
tp2084
Rp2085
ssS'CUMBERLAND MICHAEL S'
p2086
(dp2087
g3
g16
sg4
I0
sg15
g16
sg17
g5
(g9
S'\x06T\xdf\xcc[4+@'
p2088
tp2089
Rp2090
sg21
I22344
sg22
I0
sg26
I00
sg27
g5
(g9
S'\x9fN2\x0cT\x07$@'
p2091
tp2092
Rp2093
sg31
g16
sg32
g5
(g9
S'\x1ch.vT=\xf6\xbf'
p2094
tp2095
Rp2096
sg36
g16
sg38
I69
sg39
I0
sg43
I0
sg44
g16
sg45
g16
sg46
g16
sg47
g16
sg48
I713
sg49
g5
(g9
S'\xf1\xbd\xc3Fq}(@'
p2097
tp2098
Rp2099
sg53
I0
sg57
g5
(g9
S'\xa5o1#&G\x1a@'
p2100
tp2101
Rp2102
sg61
g5
(g9
S'\xf00\xa3\xb8\x8e\x0c)@'
p2103
tp2104
Rp2105
sg62
g16
sg63
g5
(g9
S'1\xc6\x8f\xd5\x16b)@'
p2106
tp2107
Rp2108
sg67
I325000
sg68
I207940
sg69
g16
sg70
g16
sg71
g5
(g9
S'\xb4\xe3\x9d\xf2R\x8e\xd2?'
p2109
tp2110
Rp2111
sg75
I275000
sg76
I207940
sg77
I184899
sg78
g5
(g9
S'\xf1\xbd\xc3Fq}(@'
p2112
tp2113
Rp2114
sg82
I807956
sg83
I0
sg87
g16
sg88
g5
(g9
S'XK\xb8=\xd2\x90\xf1?'
p2115
tp2116
Rp2117
sg92
g5
(g9
S'\x8d\xcfk3PA(@'
p2118
tp2119
Rp2120
ssS'GAHN ROBERT S'
p2121
(dp2122
g3
g16
sg4
I0
sg15
I73122
sg17
g5
(g9
S'\xc4\x90\x99\xf4\xedk+@'
p2123
tp2124
Rp2125
sg21
I50080
sg22
I0
sg26
I00
sg27
g5
(g9
S'\xa7\xf8\xe2\x86\x8b\xa4%@'
p2126
tp2127
Rp2128
sg31
I-1042
sg32
g5
(g9
S'FuN\xf8\xc1.\x04@'
p2129
tp2130
Rp2131
sg36
g16
sg38
I70
sg39
I0
sg43
g5
(g9
S'G\xc2\xfeN\xad\xa8&@'
p2132
tp2133
Rp2134
sg44
g16
sg45
g16
sg46
g16
sg47
g16
sg48
I76547
sg49
g5
(g9
S',5\xe7\xd9\xeaW)@'
p2135
tp2136
Rp2137
sg53
I0
sg57
g5
(g9
S'\xd1\xde\xd1,\xc7}&@'
p2138
tp2139
Rp2140
sg61
I0
sg62
g16
sg63
g5
(g9
S'\xc3L[\x91\xa8H*@'
p2141
tp2142
Rp2143
sg67
I509870
sg68
I318607
sg69
g16
sg70
g16
sg71
g5
(g9
S'c\xeeJ\xa3\xf0~\xfc?'
p2144
tp2145
Rp2146
sg75
g16
sg76
I235370
sg77
I192008
sg78
g5
(g9
S'j\xf3\x7fL\xe2\xbc(@'
p2147
tp2148
Rp2149
sg82
I900585
sg83
I0
sg87
I83237
sg88
g5
(g9
S'\x8d|v\x14\xf1\x83\xe8\xbf'
p2150
tp2151
Rp2152
sg92
g5
(g9
S'\x14\xf2\xcd1\xa1T(@'
p2153
tp2154
Rp2155
ssS'MCCLELLAN GEORGE'
p2156
(dp2157
g3
I1744
sg4
g5
(g9
S'\x00\x00\x00\x00\x00\x00\x00\x00'
p2158
tp2159
Rp2160
sg15
g16
sg17
g5
(g9
S'<\xf1yu5/,@'
p2161
tp2162
Rp2163
sg21
I228763
sg22
g5
(g9
S'M\xccXg\x8d\xbd\xe5?'
p2164
tp2165
Rp2166
sg26
I00
sg27
g5
(g9
S'\x14\x87\xa2cN\xae(@'
p2167
tp2168
Rp2169
sg31
I-125000
sg32
g5
(g9
S'\x8aIQ\x81y0\xf4?'
p2170
tp2171
Rp2172
sg36
S'george.mcclellan@enron.com'
p2173
sg38
I71
sg39
g5
(g9
S'.\xd8\xc9\xdftF\x9d?'
p2174
tp2175
Rp2176
sg43
g5
(g9
S'}\x81C\xed\x87E*@'
p2177
tp2178
Rp2179
sg44
g16
sg45
I1469
sg46
g16
sg47
I49
sg48
I51587
sg49
g5
(g9
S'\xb7\xc6\x91\x08 \x86+@'
p2180
tp2181
Rp2182
sg53
g5
(g9
S'\x00\x00\x00\x00\x00\x00\x00\x00'
p2183
tp2184
Rp2185
sg57
g5
(g9
S'\x92U\xe1\x8b\xb9\xb3%@'
p2186
tp2187
Rp2188
sg61
I0
sg62
g16
sg63
g5
(g9
S'\x1e\xebM\xc9\x98k+@'
p2189
tp2190
Rp2191
sg67
I900000
sg68
I947861
sg69
I52
sg70
I0
sg71
g5
(g9
S'\xce\xbd|$#\xb0\xe0\xbf'
p2192
tp2193
Rp2194
sg75
g16
sg76
I441096
sg77
I263413
sg78
g5
(g9
S'k\x13\x92\x1ey\xfe)@'
p2195
tp2196
Rp2197
sg82
I1318763
sg83
g5
(g9
S'*h\x14\x80F%\xe7?'
p2198
tp2199
Rp2200
sg87
I506765
sg88
g5
(g9
S'0\x8f\xc36\x11\xe2\xdc\xbf'
p2201
tp2202
Rp2203
sg92
g5
(g9
S'\xa1\x94\xf5V\x84\xf6(@'
p2204
tp2205
Rp2206
ssS'HERMANN ROBERT J'
p2207
(dp2208
g3
g16
sg4
I0
sg15
g16
sg17
g5
(g9
S'@y\xf7\xf6\xde&,@'
p2209
tp2210
Rp2211
sg21
I48357
sg22
I0
sg26
I00
sg27
g5
(g9
S'\xaa\x08x\x99\x9e\x92%@'
p2212
tp2213
Rp2214
sg31
I-280000
sg32
g5
(g9
S'\x98\xbf\x04\x13Fa\xba\xbf'
p2215
tp2216
Rp2217
sg36
S'robert.hermann@enron.com'
p2218
sg38
I72
sg39
I0
sg43
g5
(g9
S"\x86\x11')wH(@"
p2219
tp2220
Rp2221
sg44
g16
sg45
g16
sg46
g16
sg47
g16
sg48
I416441
sg49
g5
(g9
S'\x96\xbc\xdeA\x11\xd3*@'
p2222
tp2223
Rp2224
sg53
I0
sg57
g5
(g9
S"\x96\xe9W'\x06\xe1)@"
p2225
tp2226
Rp2227
sg61
g5
(g9
S"\x1d\xa7\x08J7\xd6'@"
p2228
tp2229
Rp2230
sg62
g16
sg63
g5
(g9
S'\xa6\xf5h\x80\xec\xea*@'
p2231
tp2232
Rp2233
sg67
I700000
sg68
I668132
sg69
g16
sg70
g16
sg71
g5
(g9
S'cx\xc4\xf5\x8fN\xef?'
p2234
tp2235
Rp2236
sg75
I150000
sg76
I480632
sg77
I262663
sg78
g5
(g9
S'\xb0\xc9\xbaAl**@'
p2237
tp2238
Rp2239
sg82
I1297461
sg83
I0
sg87
I187500
sg88
g5
(g9
S'\xdd\x18\x0cV\x8d\xd3\xec\xbf'
p2240
tp2241
Rp2242
sg92
g5
(g9
S"'\xa1,\x9d\x0e\xf5(@"
p2243
tp2244
Rp2245
ssS'HAEDICKE MARK E'
p2246
(dp2247
g3
I4009
sg4
g5
(g9
S'=\xfc\xbc)\\\xed\x8e?'
p2248
tp2249
Rp2250
sg15
I2157527
sg17
g5
(g9
S'\xba\x14\xeb~\xf5T.@'
p2251
tp2252
Rp2253
sg21
I76169
sg22
g5
(g9
S'\x9eT\xd3x\x94{\xe0?'
p2254
tp2255
Rp2256
sg26
I00
sg27
g5
(g9
S'\x86,\xc8Q>{&@'
p2257
tp2258
Rp2259
sg31
I-934484
sg32
g5
(g9
S'\xbe\x88u\xd2|\xf9\xb2\xbf'
p2260
tp2261
Rp2262
sg36
S'mark.haedicke@enron.com'
p2263
sg38
I75
sg39
g5
(g9
S'\x10\xe1T\x11\xd1\x84\x9e?'
p2264
tp2265
Rp2266
sg43
g5
(g9
S'\xf1\xb6\x9dSi\xa3*@'
p2267
tp2268
Rp2269
sg44
I-329825
sg45
I1847
sg46
g16
sg47
I1941
sg48
I52382
sg49
g5
(g9
S'\xb7\x8f\xe8\xabD1+@'
p2270
tp2271
Rp2272
sg53
g5
(g9
S'\xe9\xf3{U\xaf|\x9d?'
p2273
tp2274
Rp2275
sg57
g5
(g9
S'\xd2\x85{\x12\x8e\xbb%@'
p2276
tp2277
Rp2278
sg61
g5
(g9
S'\xe8EzX\xf1\x98+@'
p2279
tp2280
Rp2281
sg62
g16
sg63
g5
(g9
S"\xb8s'z\x19\xe9+@"
p2282
tp2283
Rp2284
sg67
I1150000
sg68
I803094
sg69
I180
sg70
I61
sg71
g5
(g9
S'\xe2\x86\xa6\xb4\xbb\xeb\xe1\xbf'
p2285
tp2286
Rp2287
sg75
I983346
sg76
I524169
sg77
I374125
sg78
g5
(g9
S'9\xd8\xeb\xcd\xd1V*@'
p2288
tp2289
Rp2290
sg82
I3859065
sg83
g5
(g9
S'\x01\x8c\xcf\xda\x04\xb4\xb6?'
p2291
tp2292
Rp2293
sg87
I608750
sg88
g5
(g9
S'\xa3\xea\x1e>\x93\x06\xca\xbf'
p2294
tp2295
Rp2296
sg92
g5
(g9
S"\xfa\xd7\xed')\xaa)@"
p2297
tp2298
Rp2299
ssS'BOWEN JR RAYMOND M'
p2300
(dp2301
g3
I1858
sg4
g5
(g9
S'q\xcb\x91\xa2\xafw\x80?'
p2302
tp2303
Rp2304
sg15
g16
sg17
g5
(g9
S'|\x9e]iI\x98-@'
p2305
tp2306
Rp2307
sg21
I65907
sg22
g5
(g9
S'\x93\xa6Z\x90a\xf3\xe5?'
p2308
tp2309
Rp2310
sg26
I01
sg27
g5
(g9
S"'}V\xe7&1&@"
p2311
tp2312
Rp2313
sg31
I-833
sg32
g5
(g9
S'\xde\x00J\xee;\xad\xcd\xbf'
p2314
tp2315
Rp2316
sg36
S'raymond.bowen@enron.com'
p2317
sg38
I76
sg39
g5
(g9
S'\xe6G(J\x1fW\xb2?'
p2318
tp2319
Rp2320
sg43
I0
sg44
g16
sg45
I1593
sg46
g16
sg47
I27
sg48
I1621
sg49
g5
(g9
S'\x86\x93\xaf;\xf3\xdf(@'
p2321
tp2322
Rp2323
sg53
g5
(g9
S'\x8dJ\x14P\xd8\x7f\x81?'
p2324
tp2325
Rp2326
sg57
g5
(g9
S'1\xb8\xd8|-\x90\x1d@'
p2327
tp2328
Rp2329
sg61
g5
(g9
S'd\x1d\xce\x105\x94+@'
p2330
tp2331
Rp2332
sg62
g16
sg63
g5
(g9
S'\xe0\xe7\xb3\xe81;,@'
p2333
tp2334
Rp2335
sg67
I1350000
sg68
I252055
sg69
I140
sg70
I15
sg71
g5
(g9
S'\xd4\x995\xb3\x82\xea\xe8\xbf'
p2336
tp2337
Rp2338
sg75
I974293
sg76
I252055
sg77
I278601
sg78
g5
(g9
S'\x86\x93\xaf;\xf3\xdf(@'
p2339
tp2340
Rp2341
sg82
I2669589
sg83
g5
(g9
S"[T\xd0\n\x8e'\xfd?"
p2342
tp2343
Rp2344
sg87
g16
sg88
g5
(g9
S'\xec!s\t{:\xdc\xbf'
p2345
tp2346
Rp2347
sg92
g5
(g9
S'#\xf2\xcc\xe87\x13)@'
p2348
tp2349
Rp2350
ssS'FITZGERALD JAY L'
p2351
(dp2352
g3
I936
sg4
g5
(g9
S'\x93\x11Rn\rn\x81?'
p2353
tp2354
Rp2355
sg15
g16
sg17
g5
(g9
S'\x00\xcb\x9fP8S,@'
p2356
tp2357
Rp2358
sg21
I23870
sg22
g5
(g9
S'\x0f\r\xdfg!\xe9\xe5?'
p2359
tp2360
Rp2361
sg26
I00
sg27
g5
(g9
S":\xb9\xb7D')$@"
p2362
tp2363
Rp2364
sg31
g16
sg32
g5
(g9
S'\x9e\\(*\xa3@\xbb\xbf'
p2365
tp2366
Rp2367
sg36
S'jay.fitzgerald@enron.com'
p2368
sg38
I78
sg39
g5
(g9
S'\xb4\x0e\x95\x1bx3Q?'
p2369
tp2370
Rp2371
sg43
g5
(g9
S'\xfb\x01F\x1b?\xd0*@'
p2372
tp2373
Rp2374
sg44
g16
sg45
I723
sg46
g16
sg47
I16
sg48
I285414
sg49
g5
(g9
S'\xd4\x8a\x02 \xef\x98,@'
p2375
tp2376
Rp2377
sg53
g5
(g9
S'\xe5\xb74\xb6\xd6B\x86?'
p2378
tp2379
Rp2380
sg57
g5
(g9
S'\x14\x89x\x9f\x96\x1f)@'
p2381
tp2382
Rp2383
sg61
g5
(g9
S'\xc4\x12\xc9\x12cu*@'
p2384
tp2385
Rp2386
sg62
g16
sg63
g5
(g9
S'\x07RyP\x08\x88)@'
p2387
tp2388
Rp2389
sg67
I350000
sg68
I1621236
sg69
I1
sg70
I8
sg71
g5
(g9
S'\x90\xdd\x18\xe2;\x01\xfe?'
p2390
tp2391
Rp2392
sg75
I556416
sg76
I956775
sg77
I199157
sg78
g5
(g9
S'\x94a\n\xeb\xea\x8a+@'
p2393
tp2394
Rp2395
sg82
I1414857
sg83
g5
(g9
S'\xa6b\x11\xc00\n\xaf?'
p2396
tp2397
Rp2398
sg87
I664461
sg88
g5
(g9
S'\x9c\xcd\xc37\x0e|\xac?'
p2399
tp2400
Rp2401
sg92
g5
(g9
S'\xb9\x8b\xbb\xb7Xg(@'
p2402
tp2403
Rp2404
ssS'REDMOND BRIAN L'
p2405
(dp2406
g3
I1671
sg4
g5
(g9
S"\xc3\xae,'\x7f\x98\x9d?"
p2407
tp2408
Rp2409
sg15
g16
sg17
g5
(g9
S".\xd0c\x04|>'@"
p2410
tp2411
Rp2412
sg21
I14689
sg22
g5
(g9
S'\xef\x0b\xc3\xfaFA\xe4?'
p2413
tp2414
Rp2415
sg26
I00
sg27
g5
(g9
S'h~\x94\xba\x900#@'
p2416
tp2417
Rp2418
sg31
g16
sg32
g5
(g9
S'Z\xc6\x0b\xc7\xb4`\xe1\xbf'
p2419
tp2420
Rp2421
sg36
S'brian.redmond@enron.com'
p2422
sg38
I80
sg39
g5
(g9
S'\xfbK\xd1\xc5\xa46\xba?'
p2423
tp2424
Rp2425
sg43
g5
(g9
S'Ccg\xd7\xc9\xa9/@'
p2426
tp2427
Rp2428
sg44
g16
sg45
I1063
sg46
g16
sg47
I221
sg48
g16
sg49
g5
(g9
S'\xd2;{\xcc%\xc3/@'
p2429
tp2430
Rp2431
sg53
g5
(g9
S'w\xb01\\\xad\xb7\xa2?'
p2432
tp2433
Rp2434
sg57
I0
sg61
I0
sg62
g16
sg63
I0
sg67
g16
sg68
I7890324
sg69
I204
sg70
I49
sg71
g5
(g9
S'\x97^<\xb5\x99r\xe7?'
p2435
tp2436
Rp2437
sg75
g16
sg76
I381285
sg77
I96840
sg78
g5
(g9
S'\xbaH\xb1\xe8\xdd\xb3)@'
p2438
tp2439
Rp2440
sg82
I111529
sg83
g5
(g9
S'\x8a\x03\xf02\xf7\xec\xe4?'
p2441
tp2442
Rp2443
sg87
I7509039
sg88
g5
(g9
S'\xbd\xf6\x8e\xb4\xb5\xba\xe6\xbf'
p2444
tp2445
Rp2446
sg92
g5
(g9
S'!\xc3\x03p-\xf6&@'
p2447
tp2448
Rp2449
ssS'BAZELIDES PHILIP J'
p2450
(dp2451
g3
g16
sg4
I0
sg15
I684694
sg17
g5
(g9
S'\xbe\x10\x07\xabfT+@'
p2452
tp2453
Rp2454
sg21
g16
sg22
I0
sg26
I00
sg27
I0
sg31
g16
sg32
g5
(g9
S'\xb7\xf0\xc8\xb4\xaeJ\xdd\xbf'
p2455
tp2456
Rp2457
sg36
g16
sg38
I81
sg39
I0
sg43
g5
(g9
S'\xa0c\xc2\x80\x11\x92,@'
p2458
tp2459
Rp2460
sg44
g16
sg45
g16
sg46
g16
sg47
g16
sg48
I874
sg49
g5
(g9
S'\xa0c\xc2\x80\x11\x92,@'
p2461
tp2462
Rp2463
sg53
I0
sg57
g5
(g9
S'\xccz\xcaa\xa2\x17\x1b@'
p2464
tp2465
Rp2466
sg61
g5
(g9
S'\xe7m7\xf9\x92\xe5&@'
p2467
tp2468
Rp2469
sg62
g16
sg63
I0
sg67
g16
sg68
I1599641
sg69
g16
sg70
g16
sg71
g5
(g9
S'\xae\xe8\x00\xa2\xe4\xb3\xe8\xbf'
p2470
tp2471
Rp2472
sg75
I93750
sg76
g16
sg77
I80818
sg78
I0
sg82
I860136
sg83
I0
sg87
I1599641
sg88
g5
(g9
S'\xbf\x82\xd8\x94#\x87\xd4\xbf'
p2473
tp2474
Rp2475
sg92
g5
(g9
S'\xeb\x9ea\xb3\x93\x99&@'
p2476
tp2477
Rp2478
ssS'BELDEN TIMOTHY N'
p2479
(dp2480
g3
I7991
sg4
g5
(g9
S'S\x8af=g~\x8b?'
p2481
tp2482
Rp2483
sg15
I2144013
sg17
g5
(g9
S'\xb8AW.\x86\n/@'
p2484
tp2485
Rp2486
sg21
I17355
sg22
g5
(g9
S'\xf0\xc6\\\x1d\xf0@\xe5?'
p2487
tp2488
Rp2489
sg26
I01
sg27
g5
(g9
S'\x97\xfa\xf6$\xf5\x85#@'
p2490
tp2491
Rp2492
sg31
I-2334434
sg32
g5
(g9
S'T!~\xfe\xd5c\xf8\xbf'
p2493
tp2494
Rp2495
sg36
S'tim.belden@enron.com'
p2496
sg38
I82
sg39
g5
(g9
S'Y\x87\xb3q,/\x9b?'
p2497
tp2498
Rp2499
sg43
g5
(g9
S'\xd2\x18\xbbr\xf7\x88+@'
p2500
tp2501
Rp2502
sg44
g16
sg45
I5521
sg46
g16
sg47
I484
sg48
I210698
sg49
g5
(g9
S'f\x14o\x7fL\xd7+@'
p2503
tp2504
Rp2505
sg53
g5
(g9
S'\xd5\xe7m\x84\xc5\xb5\x92?'
p2506
tp2507
Rp2508
sg57
g5
(g9
S'\xc9\xfcjP0\x84(@'
p2509
tp2510
Rp2511
sg61
I0
sg62
g16
sg63
g5
(g9
S'rvh\xd8\x8d\xf2.@'
p2512
tp2513
Rp2514
sg67
I5249999
sg68
I1110705
sg69
I228
sg70
I108
sg71
g5
(g9
S')\xf0t$?Y\xc7\xbf'
p2515
tp2516
Rp2517
sg75
g16
sg76
I157569
sg77
I213999
sg78
g5
(g9
S"\xc7\xf5\x18\xb9k\xef'@"
p2518
tp2519
Rp2520
sg82
I5501630
sg83
g5
(g9
S'\x86\xae\xe9\x00\x1c\xb4\xd8?'
p2521
tp2522
Rp2523
sg87
I953136
sg88
g5
(g9
S'p\x98\x9c\x8c\xb2P\xf3?'
p2524
tp2525
Rp2526
sg92
g5
(g9
S'\x80MK\xe5%\x8c(@'
p2527
tp2528
Rp2529
ssS'DURAN WILLIAM D'
p2530
(dp2531
g3
I904
sg4
g5
(g9
S'\x1aQH\x80\r$k?'
p2532
tp2533
Rp2534
sg15
g16
sg17
g5
(g9
S'\xceJ\xe4\xa4\xc4\x1b-@'
p2535
tp2536
Rp2537
sg21
I25785
sg22
g5
(g9
S'D\xbak\x01m\xf8\xe5?'
p2538
tp2539
Rp2540
sg26
I00
sg27
g5
(g9
S"'\xcb\x94(\xaaP$@"
p2541
tp2542
Rp2543
sg31
g16
sg32
g5
(g9
S'\xd6\xc9\x14q#\n\xd9\xbf'
p2544
tp2545
Rp2546
sg36
S'w.duran@enron.com'
p2547
sg38
I83
sg39
g5
(g9
S'\xde\x9e\r\xf77\x08\xbc?'
p2548
tp2549
Rp2550
sg43
g5
(g9
S'\x9bVN\x04q`,@'
p2551
tp2552
Rp2553
sg44
g16
sg45
I599
sg46
g16
sg47
I12
sg48
I1568
sg49
g5
(g9
S'\x98\x89l"\x1c\x9f,@'
p2554
tp2555
Rp2556
sg53
g5
(g9
S'v\x04\xe9T\xbbQq?'
p2557
tp2558
Rp2559
sg57
g5
(g9
S'a\x91u6#n\x1d@'
p2560
tp2561
Rp2562
sg61
g5
(g9
S'\xbcc3b\xc3\xd4+@'
p2563
tp2564
Rp2565
sg62
g16
sg63
g5
(g9
S'\xc4X\x06\x89?\x0e+@'
p2566
tp2567
Rp2568
sg67
I750000
sg68
I1640910
sg69
I106
sg70
I3
sg71
g5
(g9
S'A\xc5\xbd\xfc\xe9}\xf2\xbf'
p2569
tp2570
Rp2571
sg75
I1105218
sg76
I189041
sg77
I210692
sg78
g5
(g9
S'\x87\x0c\xc6\xfe\xa7L(@'
p2572
tp2573
Rp2574
sg82
I2093263
sg83
g5
(g9
S'\xf0By\xf6EI\x02@'
p2575
tp2576
Rp2577
sg87
I1451869
sg88
g5
(g9
S'\xc4"\xb7\x17\x07x\xd3\xbf'
p2578
tp2579
Rp2580
sg92
g5
(g9
S'\xde\xd9\xe1\x94,\x84(@'
p2581
tp2582
Rp2583
ssS'THORN TERENCE H'
p2584
(dp2585
g3
I266
sg4
g5
(g9
S'\x00\x00\x00\x00\x00\x00\x00\x00'
p2586
tp2587
Rp2588
sg15
I16586
sg17
g5
(g9
S'\xf6\xae\x06:\x12r+@'
p2589
tp2590
Rp2591
sg21
I46145
sg22
g5
(g9
S'\x82\xae\x9by\x1e\xf8\xe3?'
p2592
tp2593
Rp2594
sg26
I00
sg27
g5
(g9
S'\x05\x9d9\x7f\xa5z%@'
p2595
tp2596
Rp2597
sg31
g16
sg32
g5
(g9
S'\x12&\x00\xc1\xa1\x08\xeb\xbf'
p2598
tp2599
Rp2600
sg36
S'terence.thorn@enron.com'
p2601
sg38
I84
sg39
g5
(g9
S'\x00\x00\x00\x00\x00\x00\x00\x00'
p2602
tp2603
Rp2604
sg43
g5
(g9
S'\xb4W/o1\x9e.@'
p2605
tp2606
Rp2607
sg44
g16
sg45
I73
sg46
g16
sg47
I41
sg48
I426629
sg49
g5
(g9
S'\xf9%\xbaF\x91\xc6.@'
p2608
tp2609
Rp2610
sg53
g5
(g9
S'\x00\x00\x00\x00\x00\x00\x00\x00'
p2611
tp2612
Rp2613
sg57
g5
(g9
S'\xa3\x8a\x91)f\xed)@'
p2614
tp2615
Rp2616
sg61
g5
(g9
S'\xfaM\x92Z\x82i(@'
p2617
tp2618
Rp2619
sg62
g16
sg63
I0
sg67
g16
sg68
I4817796
sg69
I0
sg70
I0
sg71
g5
(g9
S'\xe4+\xffj\xfb>\xfe\xbf'
p2620
tp2621
Rp2622
sg75
I200000
sg76
I365320
sg77
I222093
sg78
g5
(g9
S'\xd7\x0e\t\x82\xf7\x9d)@'
p2623
tp2624
Rp2625
sg82
I911453
sg83
g5
(g9
S'\x00\x00\x00\x00\x00\x00\x00\x00'
p2626
tp2627
Rp2628
sg87
I4452476
sg88
g5
(g9
S'=\xf2\x14C\xb6\xde\xe6\xbf'
p2629
tp2630
Rp2631
sg92
g5
(g9
S"\xda\x8b@\xed'\x9f(@"
p2632
tp2633
Rp2634
ssS'FASTOW ANDREW S'
p2635
(dp2636
g3
g16
sg4
I0
sg15
g16
sg17
g5
(g9
S'p\xabd\xbc\xe4f-@'
p2637
tp2638
Rp2639
sg21
I55921
sg22
I0
sg26
I01
sg27
g5
(g9
S'L>:)\x07\xdd%@'
p2640
tp2641
Rp2642
sg31
I-1386055
sg32
g5
(g9
S'`\xb9v\xb8W\x01\xbb?'
p2643
tp2644
Rp2645
sg36
S'andrew.fastow@enron.com'
p2646
sg38
I85
sg39
I0
sg43
I0
sg44
g16
sg45
g16
sg46
g16
sg47
g16
sg48
I277464
sg49
g5
(g9
S'p\xe5Wo\xe5\xcc,@'
p2647
tp2648
Rp2649
sg53
I0
sg57
g5
(g9
S'a1p\xe5\x1f\x11)@'
p2650
tp2651
Rp2652
sg61
g5
(g9
S'\xc7\xbc\x8f\xeb\xf7\xbb,@'
p2653
tp2654
Rp2655
sg62
g16
sg63
g5
(g9
S"o\ro5\xdf',@"
p2656
tp2657
Rp2658
sg67
I1300000
sg68
I1794412
sg69
g16
sg70
g16
sg71
g5
(g9
S'\x04m\tw\xe4>\xc4\xbf'
p2659
tp2660
Rp2661
sg75
I1736055
sg76
I1794412
sg77
I440698
sg78
g5
(g9
S'p\xe5Wo\xe5\xcc,@'
p2662
tp2663
Rp2664
sg82
I2424083
sg83
I0
sg87
g16
sg88
g5
(g9
S'\x95`\xf7\xd1.\x91\x03@'
p2665
tp2666
Rp2667
sg92
g5
(g9
S'\x8d5\xcf\xcc\x02\xfe)@'
p2668
tp2669
Rp2670
ssS'CALGER CHRISTOPHER F'
p2671
(dp2672
g3
I2598
sg4
g5
(g9
S'\x84\x9d\xca\x01\xfe\x9c\x83?'
p2673
tp2674
Rp2675
sg15
g16
sg17
g5
(g9
S'\xca\x11~:\x9b\x9e,@'
p2676
tp2677
Rp2678
sg21
I35818
sg22
g5
(g9
S'\x0b\xd5\x81\xa6GT\xe5?'
p2679
tp2680
Rp2681
sg26
I01
sg27
g5
(g9
S'\x8f\x10\xc6\xf8\xef\xf8$@'
p2682
tp2683
Rp2684
sg31
I-262500
sg32
g5
(g9
S'\xb8fe\x89\x8a\x82\xb3?'
p2685
tp2686
Rp2687
sg36
S'christopher.calger@enron.com'
p2688
sg38
I87
sg39
g5
(g9
S'\xd7\xd8\x8d\x9f\x96\xef\xb1?'
p2689
tp2690
Rp2691
sg43
I0
sg44
g16
sg45
I2188
sg46
g16
sg47
I144
sg48
I486
sg49
g5
(g9
S"\xf7C\xa0\x86\x0e}'@"
p2692
tp2693
Rp2694
sg53
g5
(g9
S'\xce\x89\x1e\x891\x1e\x85?'
p2695
tp2696
Rp2697
sg57
g5
(g9
S'\x0b\x8b7y\xad\xbe\x18@'
p2698
tp2699
Rp2700
sg61
g5
(g9
S'aN\x87\x8f\xc5\xab)@'
p2701
tp2702
Rp2703
sg62
g16
sg63
g5
(g9
S'\tj\xaex\xca\x13,@'
p2704
tp2705
Rp2706
sg67
I1250000
sg68
I126027
sg69
I199
sg70
I25
sg71
g5
(g9
S'\xccVH\xecl1\xe2\xbf'
p2707
tp2708
Rp2709
sg75
I375304
sg76
I126027
sg77
I240189
sg78
g5
(g9
S"\xf7C\xa0\x86\x0e}'@"
p2710
tp2711
Rp2712
sg82
I1639297
sg83
g5
(g9
S'&*\x91.\xfa\xc5\xeb?'
p2713
tp2714
Rp2715
sg87
g16
sg88
g5
(g9
S'\xb0\xfe?(H\x19\xdc\xbf'
p2716
tp2717
Rp2718
sg92
g5
(g9
S'\xd66\x91\xc8B\xc7(@'
p2719
tp2720
Rp2721
ssS'RICE KENNETH D'
p2722
(dp2723
g3
I905
sg4
g5
(g9
S'\x8f\xfa$\xc1`\x10r?'
p2724
tp2725
Rp2726
sg15
g16
sg17
g5
(g9
S'\x9c\x07b\x99\xcbC*@'
p2727
tp2728
Rp2729
sg21
I46950
sg22
g5
(g9
S'Pc\xcf\xb5\xfd\xdd\xe5?'
p2730
tp2731
Rp2732
sg26
I01
sg27
g5
(g9
S'3\xbcwU\x80\x83%@'
p2733
tp2734
Rp2735
sg31
I-3504386
sg32
g5
(g9
S'\xfd\x80\x85Adg\x01@'
p2736
tp2737
Rp2738
sg36
S'ken.rice@enron.com'
p2739
sg38
I88
sg39
g5
(g9
S'\xb6^\x8a3\x8e\xc8\xa6?'
p2740
tp2741
Rp2742
sg43
g5
(g9
S'>\x1c\x1c\xab\x07\xcd0@'
p2743
tp2744
Rp2745
sg44
g16
sg45
I864
sg46
g16
sg47
I18
sg48
I174839
sg49
g5
(g9
S'\x98\xd9\x12mP\xee0@'
p2746
tp2747
Rp2748
sg53
g5
(g9
S'_Q\xeb`\x06\xf7q?'
p2749
tp2750
Rp2751
sg57
g5
(g9
S'z]@|\xab$(@'
p2752
tp2753
Rp2754
sg61
g5
(g9
S'\x98\xbf\xcc\x19\x99\x97,@'
p2755
tp2756
Rp2757
sg62
g16
sg63
g5
(g9
S'\xad\x03w\x8f\x10\xc0,@'
p2758
tp2759
Rp2760
sg67
I1750000
sg68
I22542539
sg69
I42
sg70
I4
sg71
g5
(g9
S'^\x17\x08ao"\xe0\xbf'
p2761
tp2762
Rp2763
sg75
I1617011
sg76
I2748364
sg77
I420636
sg78
g5
(g9
S"K\xae\xc9'-\xa7-@"
p2764
tp2765
Rp2766
sg82
I505050
sg83
g5
(g9
S'!\xa7\xbd\xfcxC\xf3?'
p2767
tp2768
Rp2769
sg87
I19794175
sg88
g5
(g9
S'\xec\x96\x7f\xab\xef\xe9\xde?'
p2770
tp2771
Rp2772
sg92
g5
(g9
S"\x89pQ\xe5'\xe6)@"
p2773
tp2774
Rp2775
ssS'KAMINSKI WINCENTY J'
p2776
(dp2777
g3
I4607
sg4
g5
(g9
S']\x13\xef\xbd\xf0\xa8\xa2?'
p2778
tp2779
Rp2780
sg15
g16
sg17
g5
(g9
S'\xff$C@+\xcc+@'
p2781
tp2782
Rp2783
sg21
I83585
sg22
g5
(g9
S'tQ\xdeu\x7f\xd2\xcb?'
p2784
tp2785
Rp2786
sg26
I00
sg27
g5
(g9
S'\xfbm\x08(\xd0\xaa&@'
p2787
tp2788
Rp2789
sg31
g16
sg32
g5
(g9
S'\xf4\x1d\xbfsp\xfc\xe4\xbf'
p2790
tp2791
Rp2792
sg36
S'vince.kaminski@enron.com'
p2793
sg38
I89
sg39
g5
(g9
S'\xf2\xd9|\xd0\x81\xaea?'
p2794
tp2795
Rp2796
sg43
g5
(g9
S'A\x1c\xf3uVN+@'
p2797
tp2798
Rp2799
sg44
g16
sg45
I583
sg46
g16
sg47
I14368
sg48
I4669
sg49
g5
(g9
S'Q\x9b\x14z\x1f\x95+@'
p2800
tp2801
Rp2802
sg53
g5
(g9
S'0\xc5\x06\t\xeb\xef\xc8?'
p2803
tp2804
Rp2805
sg57
g5
(g9
S'\xcf7.\x08\xbc\xe5 @'
p2806
tp2807
Rp2808
sg61
g5
(g9
S'\x83W\xb1\xb5\xaa_)@'
p2809
tp2810
Rp2811
sg62
g16
sg63
g5
(g9
S'\x99\xf1\x81\x8af\xcc)@'
p2812
tp2813
Rp2814
sg67
I400000
sg68
I976037
sg69
I41
sg70
I171
sg71
g5
(g9
S'\xefy\x07}\xf3\x87\xe8?'
p2815
tp2816
Rp2817
sg75
I323466
sg76
I126027
sg77
I275101
sg78
g5
(g9
S"\xf7C\xa0\x86\x0e}'@"
p2818
tp2819
Rp2820
sg82
I1086821
sg83
g5
(g9
S'\x13\xf3/\x8d\xd5Wg?'
p2821
tp2822
Rp2823
sg87
I850010
sg88
g5
(g9
S'\x10\xc8W\x87Z\x98\xf4\xbf'
p2824
tp2825
Rp2826
sg92
g5
(g9
S'W\xb1\x00\xda\xbe\x0c)@'
p2827
tp2828
Rp2829
ssS'COX DAVID'
p2830
(dp2831
g3
I102
sg4
g5
(g9
S'\xf2\xeaN4\xda\xb1\xa3?'
p2832
tp2833
Rp2834
sg15
g16
sg17
g5
(g9
S'bX\xbd\xf9\xfc\xd2+@'
p2835
tp2836
Rp2837
sg21
I27861
sg22
g5
(g9
S'\x07e\xeerV\x02\xe2?'
p2838
tp2839
Rp2840
sg26
I00
sg27
g5
(g9
S'B\xa3\xce\xb5Ox$@'
p2841
tp2842
Rp2843
sg31
I-41250
sg32
g5
(g9
S'\xe1\xb92\xfcj&\xd0\xbf'
p2844
tp2845
Rp2846
sg36
S'chip.cox@enron.com'
p2847
sg38
I91
sg39
g5
(g9
S'\x00\x00\x00\x00\x00\x00\x00\x00'
p2848
tp2849
Rp2850
sg43
g5
(g9
S"\x15\x86\x9e\xc8hY'@"
p2851
tp2852
Rp2853
sg44
g16
sg45
I71
sg46
g16
sg47
I33
sg48
I494
sg49
g5
(g9
S'+j\xe7\x99(:*@'
p2854
tp2855
Rp2856
sg53
g5
(g9
S'D\x0b\xd5\x86w\x9a\xaa?'
p2857
tp2858
Rp2859
sg57
g5
(g9
S'\xfdfzxe\xcf\x18@'
p2860
tp2861
Rp2862
sg61
I0
sg62
g16
sg63
g5
(g9
S'8\x95q\xbaJ/+@'
p2863
tp2864
Rp2865
sg67
I800000
sg68
I495633
sg69
I0
sg70
I4
sg71
g5
(g9
S'\x85pQ^\xcf\x88\xe8\xbf'
p2866
tp2867
Rp2868
sg75
g16
sg76
I378082
sg77
I314288
sg78
g5
(g9
S'&\xb0\xb5.\x8c\xaf)@'
p2869
tp2870
Rp2871
sg82
I1101393
sg83
g5
(g9
S'\x00\x00\x00\x00\x00\x00\x00\x00'
p2872
tp2873
Rp2874
sg87
I117551
sg88
g5
(g9
S'A\t1\xe5\ry\xd7\xbf'
p2875
tp2876
Rp2877
sg92
g5
(g9
S'\xc1\xd6\xb3\xe6\xedP)@'
p2878
tp2879
Rp2880
ssS'OVERDYKE JR JERE C'
p2881
(dp2882
g3
g16
sg4
I0
sg15
g16
sg17
g5
(g9
S'"\xf1 \x81R\xdb(@'
p2883
tp2884
Rp2885
sg21
I18834
sg22
I0
sg26
I00
sg27
g5
(g9
S'\xf8\x96[\x9e\xd4\xaf#@'
p2886
tp2887
Rp2888
sg31
g16
sg32
g5
(g9
S'\x0e7k\xfd\x84\xb5\xe2\xbf'
p2889
tp2890
Rp2891
sg36
S'jere.overdyke@enron.com'
p2892
sg38
I92
sg39
I0
sg43
g5
(g9
S'\xec\xf3+\x1b+\xf4.@'
p2893
tp2894
Rp2895
sg44
g16
sg45
g16
sg46
g16
sg47
g16
sg48
I176
sg49
g5
(g9
S'Qz\xdc\x8b\xdd\x9b/@'
p2896
tp2897
Rp2898
sg53
I0
sg57
g5
(g9
S'\x9d\xb8<[\x93\xae\x14@'
p2899
tp2900
Rp2901
sg61
g5
(g9
S"$q\xf8\xa5n\xa3'@"
p2902
tp2903
Rp2904
sg62
g16
sg63
I0
sg67
g16
sg68
I7307594
sg69
g16
sg70
g16
sg71
g5
(g9
S'\x1a\r\xaf\x83t\x8f\xef\xbf'
p2905
tp2906
Rp2907
sg75
I135836
sg76
I2041016
sg77
I94941
sg78
g5
(g9
S'V*\xac\x9e\xd3\x0e-@'
p2908
tp2909
Rp2910
sg82
I249787
sg83
I0
sg87
I5266578
sg88
g5
(g9
S'\t0\xfcb7\x19\xd1\xbf'
p2911
tp2912
Rp2913
sg92
g5
(g9
S'/\x1a\xbc\x9f\t\xec&@'
p2914
tp2915
Rp2916
ssS'STABLER FRANK'
p2917
(dp2918
g3
g16
sg4
I0
sg15
g16
sg17
g5
(g9
S'\x8db\xbe{\xef\xd7+@'
p2919
tp2920
Rp2921
sg21
I16514
sg22
I0
sg26
I00
sg27
g5
(g9
S'\x12\xd4h\x84\x86l#@'
p2922
tp2923
Rp2924
sg31
g16
sg32
g5
(g9
S'h\xd1\xa1Kj\x15\xf7\xbf'
p2925
tp2926
Rp2927
sg36
S'frank.stabler@enron.com'
p2928
sg38
I94
sg39
I0
sg43
I0
sg44
g16
sg45
g16
sg46
g16
sg47
g16
sg48
I356071
sg49
g5
(g9
S'\xaa\xa0\x19\xdf\x86J*@'
p2929
tp2930
Rp2931
sg53
I0
sg57
g5
(g9
S'h\xd9\xdc[\xd6\x90)@'
p2932
tp2933
Rp2934
sg61
I0
sg62
g16
sg63
g5
(g9
S'\x01\\\xa0i\xa6>*@'
p2935
tp2936
Rp2937
sg67
I500000
sg68
I511734
sg69
g16
sg70
g16
sg71
g5
(g9
S'WE\xfb\xc0\x8c\x95\xf9?'
p2938
tp2939
Rp2940
sg75
g16
sg76
I511734
sg77
I239502
sg78
g5
(g9
S'\xaa\xa0\x19\xdf\x86J*@'
p2941
tp2942
Rp2943
sg82
I1112087
sg83
I0
sg87
g16
sg88
g5
(g9
S'K",\x8e\x9e\xfe\xc6?'
p2944
tp2945
Rp2946
sg92
g5
(g9
S'Gu\x11Y\xcb\xc5(@'
p2947
tp2948
Rp2949
ssS'SKILLING JEFFREY K'
p2950
(dp2951
g3
I3627
sg4
g5
(g9
S'\xafj\xb7\xda\xb4\xde\x80?'
p2952
tp2953
Rp2954
sg15
g16
sg17
g5
(g9
S'\xbd\x03%\x05%\xf4/@'
p2955
tp2956
Rp2957
sg21
I29336
sg22
g5
(g9
S'\xd05]h\xf5\xb6\xe5?'
p2958
tp2959
Rp2960
sg26
I01
sg27
g5
(g9
S'\xd9\xbede\xb9\x92$@'
p2961
tp2962
Rp2963
sg31
g16
sg32
g5
(g9
S"4\xb4>'\xf6^\xf2\xbf"
p2964
tp2965
Rp2966
sg36
S'jeff.skilling@enron.com'
p2967
sg38
I95
sg39
g5
(g9
S'g/O\xce\xb6\xd8\x97?'
p2968
tp2969
Rp2970
sg43
g5
(g9
S'\xc0h\xab\xbe\xe4\xc50@'
p2971
tp2972
Rp2973
sg44
g16
sg45
I2042
sg46
g16
sg47
I108
sg48
I22122
sg49
g5
(g9
S'\xa8\x94\xf6\x99\xc3\x131@'
p2974
tp2975
Rp2976
sg53
g5
(g9
S'KN\xb1[\xac?\x8c?'
p2977
tp2978
Rp2979
sg57
g5
(g9
S'Sl"C7\x02$@'
p2980
tp2981
Rp2982
sg61
g5
(g9
S'1\xcb\xa8*\x88\xef,@'
p2983
tp2984
Rp2985
sg62
g16
sg63
g5
(g9
S'\x83\xe07\x10\x99\x13/@'
p2986
tp2987
Rp2988
sg67
I5600000
sg68
I26093672
sg69
I88
sg70
I30
sg71
g5
(g9
S'\xf1\x91\xa1<\xb1\\\xfb?'
p2989
tp2990
Rp2991
sg75
I1920000
sg76
I6843672
sg77
I1111258
sg78
g5
(g9
S'\xa2>Z\x94Hz/@'
p2992
tp2993
Rp2994
sg82
I8682716
sg83
g5
(g9
S'\x1eW\xbb\xd8K\x12\xe3?'
p2995
tp2996
Rp2997
sg87
I19250000
sg88
g5
(g9
S'(%\xe0F!\x86\xd6?'
p2998
tp2999
Rp3000
sg92
g5
(g9
S':`l\xbd\x8d\xd7+@'
p3001
tp3002
Rp3003
ssS'GRAY RODNEY'
p3004
(dp3005
g3
g16
sg4
I0
sg15
I93585
sg17
g5
(g9
S'+\xaf\x17\x04\x9c\xe7+@'
p3006
tp3007
Rp3008
sg21
g16
sg22
I0
sg26
I00
sg27
I0
sg31
g16
sg32
g5
(g9
S'\x93\x99\xde\x89\xc6\x18\xf3?'
p3009
tp3010
Rp3011
sg36
g16
sg38
I99
sg39
I0
sg43
I0
sg44
g16
sg45
g16
sg46
g16
sg47
g16
sg48
I680833
sg49
I0
sg53
I0
sg57
g5
(g9
S'\xd6;\x19\x83\xb5\xdc*@'
p3012
tp3013
Rp3014
sg61
g5
(g9
S'\x17\x1cl\xe4d\x9e)@'
p3015
tp3016
Rp3017
sg62
g16
sg63
I0
sg67
g16
sg68
g16
sg69
g16
sg70
g16
sg71
g5
(g9
S'\x90\x96 \x11\x152\xee\xbf'
p3018
tp3019
Rp3020
sg75
I365625
sg76
g16
sg77
I6615
sg78
I0
sg82
I1146658
sg83
I0
sg87
g16
sg88
g5
(g9
S',\xeaB\xf6a\xf0\xed?'
p3021
tp3022
Rp3023
sg92
g5
(g9
S'`)\x8b\xd8\x1c\x98!@'
p3024
tp3025
Rp3026
ssS'PICKERING MARK R'
p3027
(dp3028
g3
I898
sg4
g5
(g9
S'\x00\x00\x00\x00\x00\x00\x00\x00'
p3029
tp3030
Rp3031
sg15
g16
sg17
g5
(g9
S'\xbc=w\x9b\xecH,@'
p3032
tp3033
Rp3034
sg21
I31653
sg22
g5
(g9
S'\x9fZ\x89\x9b\xd2\x0c\xe5?'
p3035
tp3036
Rp3037
sg26
I00
sg27
g5
(g9
S'\x9a\x19n)\xa5\xb9$@'
p3038
tp3039
Rp3040
sg31
g16
sg32
g5
(g9
S'<\x19\xf5\xff\x99\r\xa0\xbf'
p3041
tp3042
Rp3043
sg36
S'mark.pickering@enron.com'
p3044
sg38
I100
sg39
g5
(g9
S'~h\x82\xc8\xcb\x9a}?'
p3045
tp3046
Rp3047
sg43
g5
(g9
S'n*\xf4Q?\x89$@'
p3048
tp3049
Rp3050
sg44
g16
sg45
I728
sg46
I400000
sg47
I67
sg48
g16
sg49
g5
(g9
S'n*\xf4Q?\x89$@'
p3051
tp3052
Rp3053
sg53
g5
(g9
S'\x00\x00\x00\x00\x00\x00\x00\x00'
p3054
tp3055
Rp3056
sg57
I0
sg61
I0
sg62
g16
sg63
g5
(g9
S'\xbcJ\xf8y\x1b9)@'
p3057
tp3058
Rp3059
sg67
I300000
sg68
I28798
sg69
I7
sg70
I0
sg71
g5
(g9
S"Z\xec'\xdc8\xee\xd3\xbf"
p3060
tp3061
Rp3062
sg75
g16
sg76
g16
sg77
I655037
sg78
I0
sg82
I1386690
sg83
g5
(g9
S'\xce{&uyp\xb9?'
p3063
tp3064
Rp3065
sg87
I28798
sg88
g5
(g9
S'\xdc\xd1:\xab\x16\x86\xc5\xbf'
p3066
tp3067
Rp3068
sg92
g5
(g9
S'\x94S:\xd0\xee\xc8*@'
p3069
tp3070
Rp3071
ssS'KEAN STEVEN J'
p3072
(dp3073
g3
I12754
sg4
g5
(g9
S'\xaf%\x87I\r\x9c\x9e?'
p3074
tp3075
Rp3076
sg15
g16
sg17
g5
(g9
S'\x17\xd8\xb7\xd4V\xbf,@'
p3077
tp3078
Rp3079
sg21
I41953
sg22
g5
(g9
S'\n\x12\x0b9H\x18\xe0?'
p3080
tp3081
Rp3082
sg26
I00
sg27
g5
(g9
S'\xee=\xcb_\xe2I%@'
p3083
tp3084
Rp3085
sg31
g16
sg32
g5
(g9
S'\xebJd\x98\x84\xd2\xc5\xbf'
p3086
tp3087
Rp3088
sg36
S'steven.kean@enron.com'
p3089
sg38
I103
sg39
g5
(g9
S'\xd6Ku\xc7\\H}?'
p3090
tp3091
Rp3092
sg43
g5
(g9
S'\xc3\xf2\x81\xd1\x0b\n-@'
p3093
tp3094
Rp3095
sg44
g16
sg45
I3639
sg46
g16
sg47
I6759
sg48
I1231
sg49
g5
(g9
S'\r\x0eP4\xdeC/@'
p3096
tp3097
Rp3098
sg53
g5
(g9
S'^\xfe\xf1R\x90\xbd\xb6?'
p3099
tp3100
Rp3101
sg57
g5
(g9
S'\x85\xdb/)[v\x1c@'
p3102
tp3103
Rp3104
sg61
g5
(g9
S'\xbcJ\xf8y\x1b9)@'
p3105
tp3106
Rp3107
sg62
g16
sg63
g5
(g9
S'\xa0\xff\x8f\x99\x8a\xa1+@'
p3108
tp3109
Rp3110
sg67
I1000000
sg68
I6153642
sg69
I140
sg70
I387
sg71
g5
(g9
S'\xe1\x94\x9c\xf9>-\xe1\xbf'
p3111
tp3112
Rp3113
sg75
I300000
sg76
I4131594
sg77
I404338
sg78
g5
(g9
S'\xd6\xf4k\xa2\xe5w.@'
p3114
tp3115
Rp3116
sg82
I1747522
sg83
g5
(g9
S'\xea\xea\xde\xf2Y\xfe\x94?'
p3117
tp3118
Rp3119
sg87
I2022048
sg88
g5
(g9
S'\xce\xa0\x81\x97._\xdd\xbf'
p3120
tp3121
Rp3122
sg92
g5
(g9
S'\x9e\xf9<]\xec\xd1)@'
p3123
tp3124
Rp3125
ssS'WASAFF GEORGE'
p3126
(dp3127
g3
I400
sg4
g5
(g9
S'<\xf3\x1bi\xd7\xc3\x91?'
p3128
tp3129
Rp3130
sg15
I831299
sg17
g5
(g9
S'\x9b\xc37\x06\xdb\xb2+@'
p3131
tp3132
Rp3133
sg21
g16
sg22
g5
(g9
S'\xc8s\xc3\x12d\x0b\xe5?'
p3134
tp3135
Rp3136
sg26
I00
sg27
I0
sg31
I-583325
sg32
g5
(g9
S"\xe2^-\xa9'\xae\xfb?"
p3137
tp3138
Rp3139
sg36
S'george.wasaff@enron.com'
p3140
sg38
I106
sg39
g5
(g9
S'\x17\xa2x\x86\x18\x8c\xa9?'
p3141
tp3142
Rp3143
sg43
g5
(g9
S'\xee\xb5\xee\xc7\x92\xa7,@'
p3144
tp3145
Rp3146
sg44
g16
sg45
I337
sg46
g16
sg47
I30
sg48
I1425
sg49
g5
(g9
S'\xd7\x07\xc4\x94\xad\x12-@'
p3147
tp3148
Rp3149
sg53
g5
(g9
S'\t+S7Wf\x93?'
p3150
tp3151
Rp3152
sg57
g5
(g9
S'\xf3`\xa4\x9d6\x0c\x1d@'
p3153
tp3154
Rp3155
sg61
g5
(g9
S'\xfaM\x92Z\x82i(@'
p3156
tp3157
Rp3158
sg62
g16
sg63
g5
(g9
S'1\xc6\x8f\xd5\x16b)@'
p3159
tp3160
Rp3161
sg67
I325000
sg68
I2056427
sg69
I22
sg70
I7
sg71
g5
(g9
S'\xa4\xa1G$\x1cM\xb2\xbf'
p3162
tp3163
Rp3164
sg75
I200000
sg76
I388167
sg77
I259996
sg78
g5
(g9
S'@\x9b<\x98\x06\xbd)@'
p3165
tp3166
Rp3167
sg82
I1034395
sg83
g5
(g9
S'\xb7J\x8b\xc6\xfa\x99\xe1?'
p3168
tp3169
Rp3170
sg87
I1668260
sg88
g5
(g9
S'.\xae"\xfde%\xe3\xbf'
p3171
tp3172
Rp3173
sg92
g5
(g9
S'\x89\x807\xf2\xd4\xef(@'
p3174
tp3175
Rp3176
ssS'WHITE JR THOMAS E'
p3177
(dp3178
g3
g16
sg4
I0
sg15
g16
sg17
g5
(g9
S'\xd91\xac\xc2X\xf3,@'
p3179
tp3180
Rp3181
sg21
I81353
sg22
I0
sg26
I00
sg27
g5
(g9
S'\x03!r\x83\xf4\x9c&@'
p3182
tp3183
Rp3184
sg31
g16
sg32
g5
(g9
S'\xea\x03\x06\xfb3\xdc\xdd\xbf'
p3185
tp3186
Rp3187
sg36
S'thomas.white@enron.com'
p3188
sg38
I107
sg39
I0
sg43
g5
(g9
S'0qJV\xb5&,@'
p3189
tp3190
Rp3191
sg44
g16
sg45
g16
sg46
g16
sg47
g16
sg48
I1085463
sg49
g5
(g9
S'\x81\xe6L\xc1z\x880@'
p3192
tp3193
Rp3194
sg53
I0
sg57
g5
(g9
S'\xe7\xf5@_\x87\xcb+@'
p3195
tp3196
Rp3197
sg61
I0
sg62
g16
sg63
g5
(g9
S'\x7fG^\x99\xb4\x08*@'
p3198
tp3199
Rp3200
sg67
I450000
sg68
I15144123
sg69
g16
sg70
g16
sg71
g5
(g9
S'\xc4\xbbx\xbd\xfd^\xcd?'
p3201
tp3202
Rp3203
sg75
g16
sg76
I13847074
sg77
I317543
sg78
g5
(g9
S']\xdf\x0c\xc1\x8eq0@'
p3204
tp3205
Rp3206
sg82
I1934359
sg83
I0
sg87
I1297049
sg88
g5
(g9
S',\xd1\x85\xd4\xb8\x0e\xfb\xbf'
p3207
tp3208
Rp3209
sg92
g5
(g9
S'\xd4\x97\x18f4V)@'
p3210
tp3211
Rp3212
ssS'ALLEN PHILLIP K'
p3213
(dp3214
g3
I2902
sg4
g5
(g9
S'I\xe4K\xfc\xcc\xae\x96?'
p3215
tp3216
Rp3217
sg15
I2869717
sg17
g5
(g9
S'\xef_o\x16\xdb\xa1.@'
p3218
tp3219
Rp3220
sg21
I13868
sg22
g5
(g9
S'&\xc8\x8f\x81\xaf\xd7\xdc?'
p3221
tp3222
Rp3223
sg26
I00
sg27
g5
(g9
S'2*;#\x1e\x13#@'
p3224
tp3225
Rp3226
sg31
I-3081055
sg32
g5
(g9
S'\x82\x14\x17k\x11g\xdf?'
p3227
tp3228
Rp3229
sg36
S'phillip.allen@enron.com'
p3230
sg38
I109
sg39
g5
(g9
S'\x9dW($]\xcc\x82?'
p3231
tp3232
Rp3233
sg43
g5
(g9
S'\xea\x9bQ0\x0b\xba,@'
p3234
tp3235
Rp3236
sg44
I-126027
sg45
I1407
sg46
g16
sg47
I2195
sg48
I152
sg49
g5
(g9
S'\xea\x9bQ0\x0b\xba,@'
p3237
tp3238
Rp3239
sg53
g5
(g9
S'\x06\xa5\xbb\x98\x0et\xa5?'
p3240
tp3241
Rp3242
sg57
g5
(g9
S'P/\xa0"t\x18\x14@'
p3243
tp3244
Rp3245
sg61
g5
(g9
S'-%\x9d->A)@'
p3246
tp3247
Rp3248
sg62
g16
sg63
g5
(g9
S'\xccN\x1ez?}.@'
p3249
tp3250
Rp3251
sg67
I4175000
sg68
I1729541
sg69
I47
sg70
I65
sg71
g5
(g9
S'\x80\xaf\xec-\xcd\xc4\xfb?'
p3252
tp3253
Rp3254
sg75
I304805
sg76
I126027
sg77
I201955
sg78
g5
(g9
S"\xf7C\xa0\x86\x0e}'@"
p3255
tp3256
Rp3257
sg82
I4484442
sg83
g5
(g9
S'(h\xa5\x0e\xdb\xb1\x95?'
p3258
tp3259
Rp3260
sg87
I1729541
sg88
g5
(g9
S'\xc4\x0e\x94\x14\xf3\xc6\xcc\xbf'
p3261
tp3262
Rp3263
sg92
g5
(g9
S'\x1c\x08q\\}n(@'
p3264
tp3265
Rp3266
ssS'SHARP VICTORIA T'
p3267
(dp3268
g3
I3136
sg4
g5
(g9
S'8\xcc\xb88&Q_?'
p3269
tp3270
Rp3271
sg15
I187469
sg17
g5
(g9
S'\x05\xbc\xb9n\x9c\x8a,@'
p3272
tp3273
Rp3274
sg21
I116337
sg22
g5
(g9
S'\x88)\xd3\xe37\x82\xe5?'
p3275
tp3276
Rp3277
sg26
I00
sg27
g5
(g9
S"o4\xb0\x1b\x18T'@"
p3278
tp3279
Rp3280
sg31
g16
sg32
g5
(g9
S'\\\xed\xb5\x16\xf6\xb6\xc8\xbf'
p3281
tp3282
Rp3283
sg36
S'vicki.sharp@enron.com'
p3284
sg38
I110
sg39
g5
(g9
S'\x90t\xec32\xef}?'
p3285
tp3286
Rp3287
sg43
g5
(g9
S'\xef\x1a\xfb\xc4\xbd\x17)@'
p3288
tp3289
Rp3290
sg44
g16
sg45
I2477
sg46
g16
sg47
I136
sg48
I2401
sg49
g5
(g9
S'2\x07h\x1d\x9c8*@'
p3291
tp3292
Rp3293
sg53
g5
(g9
S'\x89&t_\x1d\x95c?'
p3294
tp3295
Rp3296
sg57
g5
(g9
S'WZ2\xaer"\x1f@'
p3297
tp3298
Rp3299
sg61
g5
(g9
S'$\x966M\x01\xe8)@'
p3300
tp3301
Rp3302
sg62
g16
sg63
g5
(g9
S'[\xee\xe7\xa9\xff\x9b*@'
p3303
tp3304
Rp3305
sg67
I600000
sg68
I494136
sg69
I24
sg70
I6
sg71
g5
(g9
S'\xf2\x89\xc8\x01\x93\x13\xec?'
p3306
tp3307
Rp3308
sg75
I422158
sg76
I213063
sg77
I248146
sg78
g5
(g9
S'yCEY\xe7\x89(@'
p3309
tp3310
Rp3311
sg82
I1576511
sg83
g5
(g9
S'yA\x96\x97k\xcd\xc4?'
p3312
tp3313
Rp3314
sg87
I281073
sg88
g5
(g9
S'\x93X\xbc\x12\xb1,\xf3\xbf'
p3315
tp3316
Rp3317
sg92
g5
(g9
S'\xb0\xde\xbc\x92\xf2\xd7(@'
p3318
tp3319
Rp3320
ssS'REYNOLDS LAWRENCE'
p3321
(dp3322
g3
g16
sg4
I0
sg15
I51365
sg17
g5
(g9
S'\xac\xe3I}G\xc5)@'
p3323
tp3324
Rp3325
sg21
I8409
sg22
I0
sg26
I00
sg27
g5
(g9
S'\x10I\xc4>\xf9\x12"@'
p3326
tp3327
Rp3328
sg31
I-200000
sg32
g5
(g9
S'\x94[\xdd_\x959\xfe?'
p3329
tp3330
Rp3331
sg36
g16
sg38
I116
sg39
I0
sg43
g5
(g9
S'\x8c\xab\x14\xe2|{.@'
p3332
tp3333
Rp3334
sg44
I-140264
sg45
g16
sg46
g16
sg47
g16
sg48
I202052
sg49
g5
(g9
S'\x0c]\xf9c\xf7\x82.@'
p3335
tp3336
Rp3337
sg53
I0
sg57
g5
(g9
S'\x149\xefL\xbcn(@'
p3338
tp3339
Rp3340
sg61
g5
(g9
S",\x7f\xdf\xe8\x1d\xeb'@"
p3341
tp3342
Rp3343
sg62
g16
sg63
g5
(g9
S"[\xaa\xa2*\x9e\x06'@"
p3344
tp3345
Rp3346
sg67
I100000
sg68
I4221891
sg69
g16
sg70
g16
sg71
g5
(g9
S'J\xb7\x8f\xcc\x89\x02\xf8?'
p3347
tp3348
Rp3349
sg75
I156250
sg76
I201483
sg77
I76399
sg78
g5
(g9
S'RX\xc5\xaaJm(@'
p3350
tp3351
Rp3352
sg82
I394475
sg83
I0
sg87
I4160672
sg88
g5
(g9
S'\x18\xd3\xa1x\xd6G\xf8\xbf'
p3353
tp3354
Rp3355
sg92
g5
(g9
S'\xdf\xba\x1d\x82\xc9|&@'
p3356
tp3357
Rp3358
ssS'DIMICHELE RICHARD G'
p3359
(dp3360
g3
g16
sg4
I0
sg15
g16
sg17
g5
(g9
S'\x04\x7f\x8c\x03\xf1Z-@'
p3361
tp3362
Rp3363
sg21
I35812
sg22
I0
sg26
I00
sg27
g5
(g9
S'b,{\x03\xda\xf8$@'
p3364
tp3365
Rp3366
sg31
g16
sg32
g5
(g9
S'D\xda?Sg0\xdd?'
p3367
tp3368
Rp3369
sg36
S'richard.dimichele@enron.com'
p3370
sg38
I117
sg39
I0
sg43
g5
(g9
S'\xb2Xj\xd0W\xd6/@'
p3371
tp3372
Rp3373
sg44
g16
sg45
g16
sg46
g16
sg47
g16
sg48
I374689
sg49
g5
(g9
S'\xcbU\xc5\xf3(\xde/@'
p3374
tp3375
Rp3376
sg53
I0
sg57
g5
(g9
S'\xe8\xee\xbb\x99\xee\xaa)@'
p3377
tp3378
Rp3379
sg61
g5
(g9
S'u\x8e\x8c\xe2&\xe7*@'
p3380
tp3381
Rp3382
sg62
g16
sg63
g5
(g9
S'\xa0\xff\x8f\x99\x8a\xa1+@'
p3383
tp3384
Rp3385
sg67
I1000000
sg68
I8317782
sg69
g16
sg70
g16
sg71
g5
(g9
S'\x9e\xdaF\x0bH\n\xe4\xbf'
p3386
tp3387
Rp3388
sg75
I694862
sg76
I126027
sg77
I262788
sg78
g5
(g9
S"\xf7C\xa0\x86\x0e}'@"
p3389
tp3390
Rp3391
sg82
I2368151
sg83
I0
sg87
I8191755
sg88
g5
(g9
S'\x81\x82\x9bT\x92\xed\xd1\xbf'
p3392
tp3393
Rp3394
sg92
g5
(g9
S'\x1c\xe1\xc2\xf9L\xf5(@'
p3395
tp3396
Rp3397
ssS'CARTER REBECCA C'
p3398
(dp3399
g3
I312
sg4
g5
(g9
S'K\x10\xbe\xc4m\xb8\x96?'
p3400
tp3401
Rp3402
sg15
g16
sg17
g5
(g9
S'7i\xa2\xfc"\'*@'
p3403
tp3404
Rp3405
sg21
g16
sg22
g5
(g9
S'+\x14v\xfe.p\xe5?'
p3406
tp3407
Rp3408
sg26
I00
sg27
I0
sg31
I-159792
sg32
g5
(g9
S'y\xfd\xa4$\x04\xfe\xc5\xbf'
p3409
tp3410
Rp3411
sg36
S'rebecca.carter@enron.com'
p3412
sg38
I119
sg39
g5
(g9
S'E\xea p\xa1\xc0\xb5?'
p3413
tp3414
Rp3415
sg43
I0
sg44
I-307301
sg45
I196
sg46
g16
sg47
I15
sg48
I540
sg49
I0
sg53
g5
(g9
S'\x81\xd0K0\x8ap\x9e?'
p3416
tp3417
Rp3418
sg57
g5
(g9
S'\x11\xb4\xbb\x19\x91*\x19@'
p3419
tp3420
Rp3421
sg61
g5
(g9
S'~\x03\x19\x1aSs&@'
p3422
tp3423
Rp3424
sg62
g16
sg63
g5
(g9
S'\xbcJ\xf8y\x1b9)@'
p3425
tp3426
Rp3427
sg67
I300000
sg68
g16
sg69
I29
sg70
I7
sg71
g5
(g9
S'\x12/\\\x90\\\x96\xf3\xbf'
p3428
tp3429
Rp3430
sg75
I75000
sg76
I307301
sg77
I261809
sg78
g5
(g9
S'g8\xa1"kE)@'
p3431
tp3432
Rp3433
sg82
I477557
sg83
g5
(g9
S'I\x18^\xfb\xdd7\xf1?'
p3434
tp3435
Rp3436
sg87
g16
sg88
g5
(g9
S'\x9b\x11\xf6\xac7\x94\xe2\xbf'
p3437
tp3438
Rp3439
sg92
g5
(g9
S'\xf3um\xc3c\xf3(@'
p3440
tp3441
Rp3442
ssS'BUCHANAN HAROLD G'
p3443
(dp3444
g3
I1088
sg4
g5
(g9
S'\x00\x00\x00\x00\x00\x00\x00\x00'
p3445
tp3446
Rp3447
sg15
g16
sg17
g5
(g9
S'\xectT0\xc7\xbc+@'
p3448
tp3449
Rp3450
sg21
I600
sg22
g5
(g9
S'\xa9\x96\x04\xa8\xe7|\xe4?'
p3451
tp3452
Rp3453
sg26
I00
sg27
g5
(g9
S'\x16\xdd?\xbat\x96\x19@'
p3454
tp3455
Rp3456
sg31
g16
sg32
g5
(g9
S'U\xbcZ\xd8\xe2>\xc6\xbf'
p3457
tp3458
Rp3459
sg36
S'john.buchanan@enron.com'
p3460
sg38
I120
sg39
g5
(g9
S'\x00\x00\x00\x00\x00\x00\x00\x00'
p3461
tp3462
Rp3463
sg43
g5
(g9
S'\x991~\xbaU?+@'
p3464
tp3465
Rp3466
sg44
g16
sg45
I23
sg46
g16
sg47
I125
sg48
I1215
sg49
g5
(g9
S'\xc3\xba\x85$\xea\xa8+@'
p3467
tp3468
Rp3469
sg53
g5
(g9
S'\x00\x00\x00\x00\x00\x00\x00\x00'
p3470
tp3471
Rp3472
sg57
g5
(g9
S'\x1a\xa7S\x97\xf5h\x1c@'
p3473
tp3474
Rp3475
sg61
g5
(g9
S'-%\x9d->A)@'
p3476
tp3477
Rp3478
sg62
g16
sg63
g5
(g9
S'\x01\\\xa0i\xa6>*@'
p3479
tp3480
Rp3481
sg67
I500000
sg68
I1014505
sg69
I0
sg70
I0
sg71
g5
(g9
S'\xc6\x8f\xa0\xa5\x13\xb4\xe9?'
p3482
tp3483
Rp3484
sg75
I304805
sg76
I189041
sg77
I248017
sg78
g5
(g9
S'\x87\x0c\xc6\xfe\xa7L(@'
p3485
tp3486
Rp3487
sg82
I1054637
sg83
g5
(g9
S'\x00\x00\x00\x00\x00\x00\x00\x00'
p3488
tp3489
Rp3490
sg87
I825464
sg88
g5
(g9
S'\x07\x9ff\xa2>\x13\xf4\xbf'
p3491
tp3492
Rp3493
sg92
g5
(g9
S'\xa20\xc1j\xae\xd7(@'
p3494
tp3495
Rp3496
ssS'MURRAY JULIA H'
p3497
(dp3498
g3
I2192
sg4
g5
(g9
S'\x00\xba\x07\x8eY\xe2M?'
p3499
tp3500
Rp3501
sg15
g16
sg17
g5
(g9
S'\x18\xf6\x1e\x85\t7+@'
p3502
tp3503
Rp3504
sg21
I57580
sg22
g5
(g9
S'\xb7uu\xcer\xdb\xe5?'
p3505
tp3506
Rp3507
sg26
I00
sg27
g5
(g9
S'\x1b\xa4E\x17\xff\xeb%@'
p3508
tp3509
Rp3510
sg31
g16
sg32
g5
(g9
S'2\xce\x17\x95\xc6\xd1\xd9\xbf'
p3511
tp3512
Rp3513
sg36
S'julia.murray@enron.com'
p3514
sg38
I122
sg39
g5
(g9
S'\\\xda\x82\xe4\x86\x17t?'
p3515
tp3516
Rp3517
sg43
g5
(g9
S'\xa4W\x1d\x14\x03\xcd)@'
p3518
tp3519
Rp3520
sg44
g16
sg45
I395
sg46
g16
sg47
I45
sg48
I330
sg49
g5
(g9
S'8et\xd5\xd3\x99*@'
p3521
tp3522
Rp3523
sg53
g5
(g9
S'C\xe1\xa9n\x85\x07t?'
p3524
tp3525
Rp3526
sg57
g5
(g9
S'\xf3\x86EXE2\x17@'
p3527
tp3528
Rp3529
sg61
g5
(g9
S"\xc3\x14\xc1\t\xdex'@"
p3530
tp3531
Rp3532
sg62
g16
sg63
g5
(g9
S'\x99\xf1\x81\x8af\xcc)@'
p3533
tp3534
Rp3535
sg67
I400000
sg68
I597461
sg69
I11
sg70
I2
sg71
g5
(g9
S'\xe7:\xae\xe8*\xe6\xe8\xbf'
p3536
tp3537
Rp3538
sg75
I125000
sg76
I196983
sg77
I229284
sg78
g5
(g9
S'P\xb1Z\x11\xbaa(@'
p3539
tp3540
Rp3541
sg82
I812194
sg83
g5
(g9
S'\xad\xef\x10\xfb\x01\xfe\xcb?'
p3542
tp3543
Rp3544
sg87
I400478
sg88
g5
(g9
S'\x14\xd1\xfcg}\xe0\xd7\xbf'
p3545
tp3546
Rp3547
sg92
g5
(g9
S'f\x9d\xd4\x8fx\xaf(@'
p3548
tp3549
Rp3550
ssS'GARLAND C KEVIN'
p3551
(dp3552
g3
I209
sg4
g5
(g9
S'#\xae\xf0\xb0v\x1a\xbf?'
p3553
tp3554
Rp3555
sg15
g16
sg17
g5
(g9
S'\x9c\x05[\xddV\x87,@'
p3556
tp3557
Rp3558
sg21
I48405
sg22
g5
(g9
S'\xf3$rY\x05E\xe3?'
p3559
tp3560
Rp3561
sg26
I00
sg27
g5
(g9
S'\x14\xa8\xa9\xa3 \x93%@'
p3562
tp3563
Rp3564
sg31
g16
sg32
g5
(g9
S'Z\xd6\xf0\t:"\xda\xbf'
p3565
tp3566
Rp3567
sg36
S'kevin.garland@enron.com'
p3568
sg38
I123
sg39
g5
(g9
S'v\xf1\xb9<\xf2\xd8\xa3?'
p3569
tp3570
Rp3571
sg43
g5
(g9
S'\xad\xef\x1c\xc6\x07\xba*@'
p3572
tp3573
Rp3574
sg44
g16
sg45
I178
sg46
g16
sg47
I44
sg48
I60814
sg49
g5
(g9
S'\xe4\x92VSgi+@'
p3575
tp3576
Rp3577
sg53
g5
(g9
S'\x0bM)\x96\xe3H\xbe?'
p3578
tp3579
Rp3580
sg57
g5
(g9
S'(\xd0\x7f|\xf9\x07&@'
p3581
tp3582
Rp3583
sg61
g5
(g9
S'aN\x87\x8f\xc5\xab)@'
p3584
tp3585
Rp3586
sg62
g16
sg63
g5
(g9
S'\x9a\xa61\xebTN+@'
p3587
tp3588
Rp3589
sg67
I850000
sg68
I896153
sg69
I10
sg70
I27
sg71
g5
(g9
S'\xb3\xd5\x83!\x8b<\xed?'
p3590
tp3591
Rp3592
sg75
I375304
sg76
I259907
sg77
I231946
sg78
g5
(g9
S'\x9a/"\x12\xa8\xef(@'
p3593
tp3594
Rp3595
sg82
I1566469
sg83
g5
(g9
S'\x86\xec[\x0c\xb46\xca?'
p3596
tp3597
Rp3598
sg87
I636246
sg88
g5
(g9
S'\\\x95\x97?"Z\xf4\xbf'
p3599
tp3600
Rp3601
sg92
g5
(g9
S'\\]\x8c\x8ca\xb5(@'
p3602
tp3603
Rp3604
ssS'DODSON KEITH'
p3605
(dp3606
g3
I176
sg4
g5
(g9
S'\xa9\xba\x8fR\xb5N\x91?'
p3607
tp3608
Rp3609
sg15
g16
sg17
g5
(g9
S'\xe6P8\x80\x0eZ)@'
p3610
tp3611
Rp3612
sg21
I28164
sg22
g5
(g9
S'd\x7f\xffE\xc0\xfa\xe4?'
p3613
tp3614
Rp3615
sg26
I00
sg27
g5
(g9
S'N\xc34z\xd9}$@'
p3616
tp3617
Rp3618
sg31
g16
sg32
g5
(g9
S'\x11M8\x8f\xc3\xe1\xd0\xbf'
p3619
tp3620
Rp3621
sg36
S'keith.dodson@enron.com'
p3622
sg38
I124
sg39
g5
(g9
S'0\x19\xcc[\x1dC\xaa?'
p3623
tp3624
Rp3625
sg43
I0
sg44
g16
sg45
I114
sg46
g16
sg47
I14
sg48
I774
sg49
I0
sg53
g5
(g9
S'\x1fqB\x13_\xe8\x97?'
p3626
tp3627
Rp3628
sg57
g5
(g9
S'\xcc>@\xa85\x9b\x1a@'
p3629
tp3630
Rp3631
sg61
I0
sg62
g16
sg63
g5
(g9
S'`\xa0{\x11\x00P&@'
p3632
tp3633
Rp3634
sg67
I70000
sg68
g16
sg69
I10
sg70
I3
sg71
g5
(g9
S'\xeb:O\xa5\xd4\x1d\xe1\xbf'
p3635
tp3636
Rp3637
sg75
g16
sg76
g16
sg77
I221003
sg78
I0
sg82
I319941
sg83
g5
(g9
S'F\xc5\xe9\x96u?\xe1?'
p3638
tp3639
Rp3640
sg87
g16
sg88
g5
(g9
S'V\x9c\xe0|p\xcc\xb5\xbf'
p3641
tp3642
Rp3643
sg92
g5
(g9
S'\x93\xaa\x8f\x0f\xa3\x9c(@'
p3644
tp3645
Rp3646
ssS'YEAGER F SCOTT'
p3647
(dp3648
g3
g16
sg4
I0
sg15
g16
sg17
g5
(g9
S'\xe7\xba\xa1\xe8\xe1\x96)@'
p3649
tp3650
Rp3651
sg21
I53947
sg22
I0
sg26
I01
sg27
g5
(g9
S'R\xb6~\xb5\xa0\xca%@'
p3652
tp3653
Rp3654
sg31
g16
sg32
g5
(g9
S'-\xd0\xcc\x9d\x95$\xd0\xbf'
p3655
tp3656
Rp3657
sg36
S'scott.yeager@enron.com'
p3658
sg38
I125
sg39
I0
sg43
g5
(g9
S'\x02\xf0\xb8l\x97\xdd/@'
p3659
tp3660
Rp3661
sg44
g16
sg45
g16
sg46
g16
sg47
g16
sg48
I147950
sg49
g5
(g9
S'\x01^\xbe\xb9oJ0@'
p3662
tp3663
Rp3664
sg53
I0
sg57
g5
(g9
S"\x9a\xbaV\x9e+\xcf'@"
p3665
tp3666
Rp3667
sg61
I0
sg62
g16
sg63
I0
sg67
g16
sg68
I11884758
sg69
g16
sg70
g16
sg71
g5
(g9
S'z\x8f\xd4\xf5\x90\xfa\xe1?'
p3668
tp3669
Rp3670
sg75
g16
sg76
I3576206
sg77
I158403
sg78
g5
(g9
S'=H\xde\xf8\xfb-.@'
p3671
tp3672
Rp3673
sg82
I360300
sg83
I0
sg87
I8308552
sg88
g5
(g9
S'\x1b$m\x7f\xd8\t\xf4\xbf'
p3674
tp3675
Rp3676
sg92
g5
(g9
S"\xf0\xe4\xa2\xa5\x1f\xf2'@"
p3677
tp3678
Rp3679
ssS'DIETRICH JANET R'
p3680
(dp3681
g3
I2572
sg4
g5
(g9
S'\xe1\x07\xfd\xe2*<v?'
p3682
tp3683
Rp3684
sg15
g16
sg17
g5
(g9
S"'\xcd$\xb7\xa0Q,@"
p3685
tp3686
Rp3687
sg21
I3475
sg22
g5
(g9
S'\x91]2\x9f\xbd\xcb\xe5?'
p3688
tp3689
Rp3690
sg26
I00
sg27
g5
(g9
S'\xd6\xe8\x06\xdc\x83N @'
p3691
tp3692
Rp3693
sg31
g16
sg32
g5
(g9
S'~\x1c,\xe5\xe2\x96\xeb?'
p3694
tp3695
Rp3696
sg36
S'janet.dietrich@enron.com'
p3697
sg38
I127
sg39
g5
(g9
S'\x0e\xc0I\x0f\xec\t\xbc?'
p3698
tp3699
Rp3700
sg43
g5
(g9
S'M\xa5&(\xef\x81,@'
p3701
tp3702
Rp3703
sg44
g16
sg45
I1902
sg46
g16
sg47
I63
sg48
I473
sg49
g5
(g9
S'b\x92l\xc9\xac\xe0,@'
p3704
tp3705
Rp3706
sg53
g5
(g9
S'\xd1\xfdCZ\xeb\xbcy?'
p3707
tp3708
Rp3709
sg57
g5
(g9
S'\xae\x11\xca\xe6\xe9\xa2\x18@'
p3710
tp3711
Rp3712
sg61
g5
(g9
S'\xc4\x12\xc9\x12cu*@'
p3713
tp3714
Rp3715
sg62
g16
sg63
g5
(g9
S'[\xee\xe7\xa9\xff\x9b*@'
p3716
tp3717
Rp3718
sg67
I600000
sg68
I1865087
sg69
I305
sg70
I14
sg71
g5
(g9
S'\x84d#\x19\xf0\xe8\xf2\xbf'
p3719
tp3720
Rp3721
sg75
I556416
sg76
I315068
sg77
I250100
sg78
g5
(g9
S'\x864\xee\xca2R)@'
p3722
tp3723
Rp3724
sg82
I1410464
sg83
g5
(g9
S'R{\x0bV:=\xfc?'
p3725
tp3726
Rp3727
sg87
I1550019
sg88
g5
(g9
S'6U\xf7\x08,q\xe7?'
p3728
tp3729
Rp3730
sg92
g5
(g9
S'\xa5\x8b\xc7\xa4\xf6\xdb(@'
p3731
tp3732
Rp3733
ssS'DERRICK JR. JAMES V'
p3734
(dp3735
g3
I2181
sg4
g5
(g9
S'SFM\xbe\xdd\xb1\x82?'
p3736
tp3737
Rp3738
sg15
g16
sg17
g5
(g9
S'\x99\xec*|\\p*@'
p3739
tp3740
Rp3741
sg21
I51124
sg22
g5
(g9
S'\r\xd0k\xf1\xed\x16\xe1?'
p3742
tp3743
Rp3744
sg26
I00
sg27
g5
(g9
S'\x1d|\xea\xd8\x1b\xaf%@'
p3745
tp3746
Rp3747
sg31
I-1284000
sg32
g5
(g9
S'vay\x96\\/\xda\xbf'
p3748
tp3749
Rp3750
sg36
S'james.derrick@enron.com'
p3751
sg38
I128
sg39
g5
(g9
S'i\x1c\x86e\x0e\xfe\x94?'
p3752
tp3753
Rp3754
sg43
g5
(g9
S'\xa5\x95\x97 \xde\xfc/@'
p3755
tp3756
Rp3757
sg44
I-1787380
sg45
I1401
sg46
g16
sg47
I909
sg48
I7482
sg49
g5
(g9
S'\xa5\x95\x97 \xde\xfc/@'
p3758
tp3759
Rp3760
sg53
g5
(g9
S'\x03a]\xab\xfde\x8b?'
p3761
tp3762
Rp3763
sg57
g5
(g9
S'\x8c\xfe\xbd\xb7+\xd7!@'
p3764
tp3765
Rp3766
sg61
g5
(g9
S'\xb4\xe2f\x88\xff-*@'
p3767
tp3768
Rp3769
sg62
g16
sg63
g5
(g9
S'8\x95q\xbaJ/+@'
p3770
tp3771
Rp3772
sg67
I800000
sg68
I8831913
sg69
I64
sg70
I20
sg71
g5
(g9
S'\xe5\xb0\xf6C\x98\xcd\xf6\xbf'
p3773
tp3774
Rp3775
sg75
I484000
sg76
I1787380
sg77
I492375
sg78
g5
(g9
S'\xd5\xa4\xd1\xc6\xe2\xca,@'
p3776
tp3777
Rp3778
sg82
I550981
sg83
g5
(g9
S'\x88|Y\xcc\x00k\xb1?'
p3779
tp3780
Rp3781
sg87
I8831913
sg88
g5
(g9
S'\xc5\x95s\xaf#\xe6\xe1\xbf'
p3782
tp3783
Rp3784
sg92
g5
(g9
S'\x81\xf5\xa8*\xc86*@'
p3785
tp3786
Rp3787
ssS'FREVERT MARK A'
p3788
(dp3789
g3
I3275
sg4
g5
(g9
S'\x1f-\xf2\xcf0\xfd]?'
p3790
tp3791
Rp3792
sg15
I6426990
sg17
g5
(g9
S'\x94\xbb\xb7 \xd9\xa90@'
p3793
tp3794
Rp3795
sg21
I86987
sg22
g5
(g9
S'iB:z\x1f\x14\xe6?'
p3796
tp3797
Rp3798
sg26
I00
sg27
g5
(g9
S'\x9c\xc5\xcf8=\xbf&@'
p3799
tp3800
Rp3801
sg31
I-3367011
sg32
g5
(g9
S'[\xff\x1d\xedH3\xf5\xbf'
p3802
tp3803
Rp3804
sg36
S'mark.frevert@enron.com'
p3805
sg38
I129
sg39
g5
(g9
S',\x8e\xce\x08[#\xb2?'
p3806
tp3807
Rp3808
sg43
g5
(g9
S'\xbe\xef\xb4\xc2\x18)0@'
p3809
tp3810
Rp3811
sg44
g16
sg45
I2979
sg46
I2000000
sg47
I21
sg48
I7427621
sg49
g5
(g9
S'\xd0[\x0b<\x80\x7f0@'
p3812
tp3813
Rp3814
sg53
g5
(g9
S'\xb8\x97\xe4mGo^?'
p3815
tp3816
Rp3817
sg57
g5
(g9
S"\xf9\x00'\xe94\xa4/@"
p3818
tp3819
Rp3820
sg61
g5
(g9
S'\x98\xbf\xcc\x19\x99\x97,@'
p3821
tp3822
Rp3823
sg62
g16
sg63
g5
(g9
S'?\xa3\x7f\xc9n\x04-@'
p3824
tp3825
Rp3826
sg67
I2000000
sg68
I14622185
sg69
I242
sg70
I6
sg71
g5
(g9
S'\xd3\t&\xfbZ\xf8\xf6?'
p3827
tp3828
Rp3829
sg75
I1617011
sg76
I4188667
sg77
I1060932
sg78
g5
(g9
S'\xe8XC\xd8\xeb~.@'
p3830
tp3831
Rp3832
sg82
I17252530
sg83
g5
(g9
S'Q$\xd4\xe9\x968\x04@'
p3833
tp3834
Rp3835
sg87
I10433518
sg88
g5
(g9
S'\xd1\xa2w\x06b\x14\xd8?'
p3836
tp3837
Rp3838
sg92
g5
(g9
S'\x87\xa0J7\xd3\xbf+@'
p3839
tp3840
Rp3841
ssS'PAI LOU L'
p3842
(dp3843
g3
g16
sg4
I0
sg15
g16
sg17
g5
(g9
S'O]\xd6\xb0\xaa\xe8-@'
p3844
tp3845
Rp3846
sg21
I32047
sg22
I0
sg26
I00
sg27
g5
(g9
S'\xbfx`\x9b\xfa\xbf$@'
p3847
tp3848
Rp3849
sg31
g16
sg32
g5
(g9
S'\xbd\x88\xb2;\xf4\x9e\x02@'
p3850
tp3851
Rp3852
sg36
S'lou.pai@enron.com'
p3853
sg38
I130
sg39
I0
sg43
g5
(g9
S'A|\x17$,\x8c0@'
p3854
tp3855
Rp3856
sg44
g16
sg45
g16
sg46
g16
sg47
g16
sg48
I1829457
sg49
g5
(g9
S'\xb0\xbf\xf7*g\xfc0@'
p3857
tp3858
Rp3859
sg53
I0
sg57
g5
(g9
S'\x17K\xc9\x9a\xcc\xd6,@'
p3860
tp3861
Rp3862
sg61
I0
sg62
g16
sg63
g5
(g9
S'\xa0\xff\x8f\x99\x8a\xa1+@'
p3863
tp3864
Rp3865
sg67
I1000000
sg68
I23817930
sg69
g16
sg70
g16
sg71
g5
(g9
S'\xc61\xa7f\xb5\x18\xcf\xbf'
p3866
tp3867
Rp3868
sg75
g16
sg76
I8453763
sg77
I261879
sg78
g5
(g9
S'h\xbb\x9ckv\xe6/@'
p3869
tp3870
Rp3871
sg82
I3123383
sg83
I0
sg87
I15364167
sg88
g5
(g9
S'IH^B\xf35\xf4?'
p3872
tp3873
Rp3874
sg92
g5
(g9
S'`{\xb1\xcd\x86\xf3(@'
p3875
tp3876
Rp3877
ssS'BAY FRANKLIN R'
p3878
(dp3879
g3
g16
sg4
I0
sg15
I260455
sg17
g5
(g9
S'er\x03\xa9\xb7@+@'
p3880
tp3881
Rp3882
sg21
I129142
sg22
I0
sg26
I00
sg27
g5
(g9
S"\x88Y5\xd5\x8e\x89'@"
p3883
tp3884
Rp3885
sg31
I-201641
sg32
g5
(g9
S'\x00-\x9b@\xf9\xb9\x93?'
p3886
tp3887
Rp3888
sg36
S'frank.bay@enron.com'
p3889
sg38
I131
sg39
I0
sg43
I0
sg44
I-82782
sg45
g16
sg46
g16
sg47
g16
sg48
I69
sg49
g5
(g9
S'\x9b\xd5\xef`+\x1a&@'
p3890
tp3891
Rp3892
sg53
I0
sg57
g5
(g9
S'\xbb\x1a\x94\x9d\xb9\xef\x10@'
p3893
tp3894
Rp3895
sg61
I0
sg62
g16
sg63
g5
(g9
S'\x99\xf1\x81\x8af\xcc)@'
p3896
tp3897
Rp3898
sg67
I400000
sg68
I63014
sg69
g16
sg70
g16
sg71
g5
(g9
S'\x16\x80\xfb*!\x8c\xc2\xbf'
p3899
tp3900
Rp3901
sg75
g16
sg76
I145796
sg77
I239671
sg78
g5
(g9
S"\xbdT9Q\xa9\xc7'@"
p3902
tp3903
Rp3904
sg82
I827696
sg83
I0
sg87
g16
sg88
g5
(g9
S'\xe7\xfc\x98\x1e\x95\x8b\x02@'
p3905
tp3906
Rp3907
sg92
g5
(g9
S"\xf2\xc9\xc2\xcd'\xc6(@"
p3908
tp3909
Rp3910
ssS'FALLON JAMES B'
p3911
(dp3912
g3
I1755
sg4
g5
(g9
S'\xd4\xc7\xe4\xf0:]\x95?'
p3913
tp3914
Rp3915
sg15
g16
sg17
g5
(g9
S'\xcc\xeb:\x8e\x1f<.@'
p3916
tp3917
Rp3918
sg21
I95924
sg22
g5
(g9
S'wj\x1b&\xa6\x84\xe5?'
p3919
tp3920
Rp3921
sg26
I00
sg27
g5
(g9
S'\x1a\xb4Y\xbdO\xf1&@'
p3922
tp3923
Rp3924
sg31
g16
sg32
g5
(g9
S"\x1e\x8b\x97'\x02~\xf5?"
p3925
tp3926
Rp3927
sg36
S'jim.fallon@enron.com'
p3928
sg38
I134
sg39
g5
(g9
S'\x0bK\r\xd4j<\x97?'
p3929
tp3930
Rp3931
sg43
g5
(g9
S'\x1b\xe34L\x00\x82+@'
p3932
tp3933
Rp3934
sg44
g16
sg45
I1604
sg46
g16
sg47
I75
sg48
I401481
sg49
g5
(g9
S"\xaa\x93(!'S-@"
p3935
tp3936
Rp3937
sg53
g5
(g9
S"\x1d'R\x90\xaeD\x96?"
p3938
tp3939
Rp3940
sg57
g5
(g9
S'\x9b\x1c^\xf0J\xce)@'
p3941
tp3942
Rp3943
sg61
g5
(g9
S'\xef\xc0\xb4\xe8v\xaa)@'
p3944
tp3945
Rp3946
sg62
g16
sg63
g5
(g9
S'\xa8\r\x9e\xa8\xaev-@'
p3947
tp3948
Rp3949
sg67
I2500000
sg68
I2332399
sg69
I42
sg70
I37
sg71
g5
(g9
S'5>\xc6\x10\xd7#\xec?'
p3950
tp3951
Rp3952
sg75
I374347
sg76
I1392142
sg77
I304588
sg78
g5
(g9
S'I\r\x93\xed\xeeJ,@'
p3953
tp3954
Rp3955
sg82
I3676340
sg83
g5
(g9
S'\x18\x05\xd4\x84\xbbu\xdc?'
p3956
tp3957
Rp3958
sg87
I940257
sg88
g5
(g9
S'^m\x97\xcds\x8d\xda\xbf'
p3959
tp3960
Rp3961
sg92
g5
(g9
S'\xcc\x1f\xae\xd4\xe0@)@'
p3962
tp3963
Rp3964
ssS'KOENIG MARK E'
p3965
(dp3966
g3
I2374
sg4
g5
(g9
S'\x96\xfb\xc1\x16\x88\xccy?'
p3967
tp3968
Rp3969
sg15
g16
sg17
g5
(g9
S'3\x97-_$\x8e,@'
p3970
tp3971
Rp3972
sg21
I127017
sg22
g5
(g9
S'\xf1\x1a\t\xde\x00\xc7\xe5?'
p3973
tp3974
Rp3975
sg26
I01
sg27
g5
(g9
S'E\xe74"\x10\x81\'@'
p3976
tp3977
Rp3978
sg31
g16
sg32
g5
(g9
S'\xa70~~\xfdc\xf6?'
p3979
tp3980
Rp3981
sg36
S'mark.koenig@enron.com'
p3982
sg38
I135
sg39
g5
(g9
S'\xefUV"\x98\x0c\x96?'
p3983
tp3984
Rp3985
sg43
g5
(g9
S'\x85\x90\xd5\x92\xd2\xd5*@'
p3986
tp3987
Rp3988
sg44
g16
sg45
I2271
sg46
g16
sg47
I61
sg48
I150458
sg49
g5
(g9
S'\xa4\x1a\xd7\xeb\x8b\xef,@'
p3989
tp3990
Rp3991
sg53
g5
(g9
S'\xafY]Z\x0b/z?'
p3992
tp3993
Rp3994
sg57
g5
(g9
S"&H\xce\xe2\xc6\xd7'@"
p3995
tp3996
Rp3997
sg61
g5
(g9
S'\xbcJ\xf8y\x1b9)@'
p3998
tp3999
Rp4000
sg62
g16
sg63
g5
(g9
S'\xa6\xf5h\x80\xec\xea*@'
p4001
tp4002
Rp4003
sg67
I700000
sg68
I1920055
sg69
I53
sg70
I15
sg71
g5
(g9
S'\xb1F\xce\xfb\xc2\xcc\xd7\xbf'
p4004
tp4005
Rp4006
sg75
I300000
sg76
I1248318
sg77
I309946
sg78
g5
(g9
S'\xa2\xcen\xfb\x19\x13,@'
p4007
tp4008
Rp4009
sg82
I1587421
sg83
g5
(g9
S'N\xac\xd3\xb3\xa8\x02\xe4?'
p4010
tp4011
Rp4012
sg87
I671737
sg88
g5
(g9
S'\x0bs\xfa\x10\xc5\xf4\xe0\xbf'
p4013
tp4014
Rp4015
sg92
g5
(g9
S'D\x19`x\xceI)@'
p4016
tp4017
Rp4018
ssS'IZZO LAWRENCE L'
p4019
(dp4020
g3
I496
sg4
g5
(g9
S'A\xf9\xca6\xb3\x8a\x84?'
p4021
tp4022
Rp4023
sg15
g16
sg17
g5
(g9
S'\x1ax\x07\xb9.\xff,@'
p4024
tp4025
Rp4026
sg21
I28093
sg22
g5
(g9
S'\x81-ri\xbc\x95\xe5?'
p4027
tp4028
Rp4029
sg26
I00
sg27
g5
(g9
S'\x94\xcff\xa2\x8e|$@'
p4030
tp4031
Rp4032
sg31
g16
sg32
g5
(g9
S"j?\x02'\xcd\x02\xf3?"
p4033
tp4034
Rp4035
sg36
S'larry.izzo@enron.com'
p4036
sg38
I137
sg39
g5
(g9
S'FZ\xac\xceD\x1b\xab?'
p4037
tp4038
Rp4039
sg43
g5
(g9
S'\xce\xea\xb4\xb1\x0f--@'
p4040
tp4041
Rp4042
sg44
g16
sg45
I437
sg46
g16
sg47
I19
sg48
I1553729
sg49
g5
(g9
S"#\x85\x1eLS'/@"
p4043
tp4044
Rp4045
sg53
g5
(g9
S')\x94\xfa\xab\x12\xac\x85?'
p4046
tp4047
Rp4048
sg57
g5
(g9
S'\xf8P\\\x81(\x83,@'
p4049
tp4050
Rp4051
sg61
g5
(g9
S'\xcb"\xcf\x18\x02N)@'
p4052
tp4053
Rp4054
sg62
g16
sg63
I0
sg67
g16
sg68
I5819980
sg69
I28
sg70
I5
sg71
g5
(g9
S'~b9\xe6g\xf9\xe6\xbf'
p4055
tp4056
Rp4057
sg75
I312500
sg76
I3654808
sg77
I85274
sg78
g5
(g9
S'\xd9\xbb\x19\x9f\x1d9.@'
p4058
tp4059
Rp4060
sg82
I1979596
sg83
g5
(g9
S'(\xf60\xa6\x90\xfb\xec?'
p4061
tp4062
Rp4063
sg87
I2165172
sg88
g5
(g9
S'1\xccsZ\xcc$\xeb?'
p4064
tp4065
Rp4066
sg92
g5
(g9
S'./\x01R\x0e\xb5&@'
p4067
tp4068
Rp4069
ssS'TILNEY ELIZABETH A'
p4070
(dp4071
g3
I460
sg4
g5
(g9
S'Y^}"\xe22\x98?'
p4072
tp4073
Rp4074
sg15
g16
sg17
g5
(g9
S'\xa1\xb4\xfb|\x9f\xcb)@'
p4075
tp4076
Rp4077
sg21
g16
sg22
g5
(g9
S'\x0c\xa8x8(\x8a\xe5?'
p4078
tp4079
Rp4080
sg26
I00
sg27
I0
sg31
I-575000
sg32
g5
(g9
S'\xa8\xd5m\xee\xe6\xfa\xda\xbf'
p4081
tp4082
Rp4083
sg36
S'elizabeth.tilney@enron.com'
p4084
sg38
I138
sg39
g5
(g9
S']\xb1\xc0\x1ad(\x95?'
p4085
tp4086
Rp4087
sg43
g5
(g9
S'\x10sK\x1fz\x94*@'
p4088
tp4089
Rp4090
sg44
g16
sg45
I379
sg46
g16
sg47
I19
sg48
I152055
sg49
g5
(g9
S'\xf2\xba\xa6\xdc\x11\xf1+@'
p4091
tp4092
Rp4093
sg53
g5
(g9
S'>\xce\xdd\x0c\x9e\xc7\x9b?'
p4094
tp4095
Rp4096
sg57
g5
(g9
S"\xc3\xe7M\xc9.\xdd'@"
p4097
tp4098
Rp4099
sg61
g5
(g9
S'\xf00\xa3\xb8\x8e\x0c)@'
p4100
tp4101
Rp4102
sg62
g16
sg63
g5
(g9
S'\xbcJ\xf8y\x1b9)@'
p4103
tp4104
Rp4105
sg67
I300000
sg68
I1168042
sg69
I10
sg70
I11
sg71
g5
(g9
S'\xe5g\xe0h"\x85\x04@'
p4106
tp4107
Rp4108
sg75
I275000
sg76
I576792
sg77
I247338
sg78
g5
(g9
S'\x15j\xb8$\xcd\x87*@'
p4109
tp4110
Rp4111
sg82
I399393
sg83
g5
(g9
S'\x91WJ.\x16\x10\xdb?'
p4112
tp4113
Rp4114
sg87
I591250
sg88
g5
(g9
S'\x85+-\xb2\x8b-\xf4?'
p4115
tp4116
Rp4117
sg92
g5
(g9
S'\xea\x92I\x16G\xd6(@'
p4118
tp4119
Rp4120
ssS'MARTIN AMANDA K'
p4121
(dp4122
g3
I1522
sg4
g5
(g9
S'\x00\x00\x00\x00\x00\x00\x00\x00'
p4123
tp4124
Rp4125
sg15
I85430
sg17
g5
(g9
S'8\xdf\xdb\x9d\x9f\xe3/@'
p4126
tp4127
Rp4128
sg21
I8211
sg22
g5
(g9
S'\x92C]\xb2\x15\x02\xe4?'
p4129
tp4130
Rp4131
sg26
I00
sg27
g5
(g9
S'\x87\xf8\x0e\x15\xc6\x06"@'
p4132
tp4133
Rp4134
sg31
g16
sg32
g5
(g9
S'\xee\x9e\xbbi8r\xb1?'
p4135
tp4136
Rp4137
sg36
S'a..martin@enron.com'
p4138
sg38
I139
sg39
g5
(g9
S'k\x16s\xb0\x1e\xa9r?'
p4139
tp4140
Rp4141
sg43
g5
(g9
S'\x0e\x95\xaf9\x1f\x16-@'
p4142
tp4143
Rp4144
sg44
g16
sg45
I477
sg46
g16
sg47
I230
sg48
I2818454
sg49
g5
(g9
S'\x0e\x95\xaf9\x1f\x16-@'
p4145
tp4146
Rp4147
sg53
g5
(g9
S'\x00\x00\x00\x00\x00\x00\x00\x00'
p4148
tp4149
Rp4150
sg57
g5
(g9
S'\x00\xdaa\xe6\x11\xb4-@'
p4151
tp4152
Rp4153
sg61
g5
(g9
S'\xc5\xc3\xc0\xea@\xe8.@'
p4154
tp4155
Rp4156
sg62
g16
sg63
I0
sg67
g16
sg68
I2070306
sg69
I8
sg70
I0
sg71
g5
(g9
S'\\\n\xaf\x19\xf1\xa5\xe4\xbf'
p4157
tp4158
Rp4159
sg75
I5145434
sg76
g16
sg77
I349487
sg78
I0
sg82
I8407016
sg83
g5
(g9
S'\xf2\x86\xcc\xd2\x87\x81\xa1?'
p4160
tp4161
Rp4162
sg87
I2070306
sg88
g5
(g9
S'\x12\\\x0c\xca:\xa9\xde\xbf'
p4163
tp4164
Rp4165
sg92
g5
(g9
S'\x12~/\x0fH\x87)@'
p4166
tp4167
Rp4168
ssS'BUY RICHARD B'
p4169
(dp4170
g3
I3523
sg4
g5
(g9
S'g\xdd\xe6\xb6\x87n\x94?'
p4171
tp4172
Rp4173
sg15
I649584
sg17
g5
(g9
S'\\C\xe1+>X-@'
p4174
tp4175
Rp4176
sg21
g16
sg22
g5
(g9
S'\x86\r\xf9@\xf0D\xe2?'
p4177
tp4178
Rp4179
sg26
I00
sg27
I0
sg31
I-694862
sg32
g5
(g9
S'Jt\xa3\x04\xe9\xd1\xf5?'
p4180
tp4181
Rp4182
sg36
S'rick.buy@enron.com'
p4183
sg38
I140
sg39
g5
(g9
S'm\xaf\xf5\xe3\xe2)\xa1?'
p4184
tp4185
Rp4186
sg43
g5
(g9
S'm\x95$J`\x7f-@'
p4187
tp4188
Rp4189
sg44
g16
sg45
I2333
sg46
g16
sg47
I1053
sg48
I400572
sg49
g5
(g9
S'\x03\x93\xfc\x85\xc4\x1a.@'
p4190
tp4191
Rp4192
sg53
g5
(g9
S'\xd0\x9f\xc6\xfbg\x03\x9c?'
p4193
tp4194
Rp4195
sg57
g5
(g9
S'\xe1\xfe\x11\xd7!\xcd)@'
p4196
tp4197
Rp4198
sg61
g5
(g9
S'0\xb0*\x81\xa1\x1b+@'
p4199
tp4200
Rp4201
sg62
g16
sg63
g5
(g9
S'\x1e\xebM\xc9\x98k+@'
p4202
tp4203
Rp4204
sg67
I900000
sg68
I3444470
sg69
I156
sg70
I71
sg71
g5
(g9
S'\xd3\xa7\n\xde\xc3\xbf\xe4\xbf'
p4205
tp4206
Rp4207
sg75
I769862
sg76
I901657
sg77
I330546
sg78
g5
(g9
S'\x0b-\xf1\xe1\x89l+@'
p4208
tp4209
Rp4210
sg82
I2355702
sg83
g5
(g9
S'\xa1l\xda\x08\xe9\xae\xc1?'
p4211
tp4212
Rp4213
sg87
I2542813
sg88
g5
(g9
S'\xe5.*\xcf\xda\x08\xe6?'
p4214
tp4215
Rp4216
sg92
g5
(g9
S'Wc_\xa8\xc0j)@'
p4217
tp4218
Rp4219
ssS'CAUSEY RICHARD A'
p4220
(dp4221
g3
I1892
sg4
g5
(g9
S'\xde\x80L\xf9\x95\xe5y?'
p4222
tp4223
Rp4224
sg15
g16
sg17
g5
(g9
S'\x9b\xce\xc9\x84\xae\xe1,@'
p4225
tp4226
Rp4227
sg21
I30674
sg22
g5
(g9
S'\x9f\xf3\xba\x813\xc6\xe5?'
p4228
tp4229
Rp4230
sg26
I01
sg27
g5
(g9
S'\x1aO\xb33\x8f\xa9$@'
p4231
tp4232
Rp4233
sg31
I-235000
sg32
g5
(g9
S'Y,\x83\x82x.\xd2?'
p4234
tp4235
Rp4236
sg36
S'richard.causey@enron.com'
p4237
sg38
I142
sg39
g5
(g9
S'5\xd5(\xb4\x80&\x9e?'
p4238
tp4239
Rp4240
sg43
I0
sg44
g16
sg45
I1585
sg46
g16
sg47
I49
sg48
I307895
sg49
g5
(g9
S'\xcb\x01Q\xc6\x1aw-@'
p4241
tp4242
Rp4243
sg53
g5
(g9
S'\n\x88\xe1o\x89\x97}?'
p4244
tp4245
Rp4246
sg57
g5
(g9
S'\x08PW?hF)@'
p4247
tp4248
Rp4249
sg61
g5
(g9
S'\x07RyP\x08\x88)@'
p4250
tp4251
Rp4252
sg62
g16
sg63
g5
(g9
S'\xa0\xff\x8f\x99\x8a\xa1+@'
p4253
tp4254
Rp4255
sg67
I1000000
sg68
I2502063
sg69
I58
sg70
I12
sg71
g5
(g9
S'\x0f\xf1\xd6\xb2\x7f\x1d\xe1?'
p4256
tp4257
Rp4258
sg75
I350000
sg76
I2502063
sg77
I415189
sg78
g5
(g9
S'\xcb\x01Q\xc6\x1aw-@'
p4259
tp4260
Rp4261
sg82
I1868758
sg83
g5
(g9
S'~\xd10\x9d\x05\xfe\xe8?'
p4262
tp4263
Rp4264
sg87
g16
sg88
g5
(g9
S'\xf7\x9d8z/[\xf3?'
p4265
tp4266
Rp4267
sg92
g5
(g9
S'\xa9\x18g\x80{\xdf)@'
p4268
tp4269
Rp4270
ssS'TAYLOR MITCHELL S'
p4271
(dp4272
g3
I533
sg4
g5
(g9
S'\x00\x00\x00\x00\x00\x00\x00\x00'
p4273
tp4274
Rp4275
sg15
I227449
sg17
g5
(g9
S'jo\xb6\xea\xe9\xce+@'
p4276
tp4277
Rp4278
sg21
g16
sg22
g5
(g9
S'\xec3\xcb\xb9 X\xe5?'
p4279
tp4280
Rp4281
sg26
I00
sg27
I0
sg31
g16
sg32
g5
(g9
S'\xd1\xfd\xado\x00\xc7\xe0\xbf'
p4282
tp4283
Rp4284
sg36
S'mitchell.taylor@enron.com'
p4285
sg38
I143
sg39
g5
(g9
S'\x00\x00\x00\x00\x00\x00\x00\x00'
p4286
tp4287
Rp4288
sg43
g5
(g9
S'hQ\x0e\xd8\x10\xf2-@'
p4289
tp4290
Rp4291
sg44
g16
sg45
I300
sg46
g16
sg47
I29
sg48
g16
sg49
g5
(g9
S'\x96\xe1\xfc\x94\x9aE.@'
p4292
tp4293
Rp4294
sg53
g5
(g9
S'\x00\x00\x00\x00\x00\x00\x00\x00'
p4295
tp4296
Rp4297
sg57
I0
sg61
I0
sg62
g16
sg63
g5
(g9
S'[\xee\xe7\xa9\xff\x9b*@'
p4298
tp4299
Rp4300
sg67
I600000
sg68
I3745048
sg69
I0
sg70
I0
sg71
g5
(g9
S'\x00\xc2\x97:\xd0\xbd\xf2\xbf'
p4301
tp4302
Rp4303
sg75
g16
sg76
I563798
sg77
I265214
sg78
g5
(g9
S'\xc35\x01\x94"|*@'
p4304
tp4305
Rp4306
sg82
I1092663
sg83
g5
(g9
S'\x00\x00\x00\x00\x00\x00\x00\x00'
p4307
tp4308
Rp4309
sg87
I3181250
sg88
g5
(g9
S'\xb0\x97\x12\xf6\t\xc4\xd9\xbf'
p4310
tp4311
Rp4312
sg92
g5
(g9
S'\x99=\xa8s\x01\xfa(@'
p4313
tp4314
Rp4315
ssS'DONAHUE JR JEFFREY M'
p4316
(dp4317
g3
I865
sg4
g5
(g9
S'<\xa2B\x985\xe1\x89?'
p4318
tp4319
Rp4320
sg15
g16
sg17
g5
(g9
S'\x12\xd1L+\x9e]+@'
p4321
tp4322
Rp4323
sg21
I96268
sg22
g5
(g9
S'\x93g/\xdd\x08\xc8\xe5?'
p4324
tp4325
Rp4326
sg26
I00
sg27
g5
(g9
S'\x80\xa5\x13\xf2$\xf3&@'
p4327
tp4328
Rp4329
sg31
I-300000
sg32
g5
(g9
S'\xfeS\x1d\x97\xb2\xfa\xe5\xbf'
p4330
tp4331
Rp4332
sg36
S'jeff.donahue@enron.com'
p4333
sg38
I144
sg39
g5
(g9
S"@f|'\x06\x9b\xc8?"
p4334
tp4335
Rp4336
sg43
g5
(g9
S'\xcb\xab\xbb\xa3\x00\x19+@'
p4337
tp4338
Rp4339
sg44
g16
sg45
I772
sg46
g16
sg47
I22
sg48
I891
sg49
g5
(g9
S'\x86\xb4\xa4\xe3i\xc9+@'
p4340
tp4341
Rp4342
sg53
g5
(g9
S'\xdc\xaeS=\x05\x12\x87?'
p4343
tp4344
Rp4345
sg57
g5
(g9
S'\xb0\x9elV\\+\x1b@'
p4346
tp4347
Rp4348
sg61
I0
sg62
g16
sg63
g5
(g9
S'8\x95q\xbaJ/+@'
p4349
tp4350
Rp4351
sg67
I800000
sg68
I1080988
sg69
I188
sg70
I11
sg71
g5
(g9
S';\x13#\x83\xb7\xc0\xdb?'
p4352
tp4353
Rp4354
sg75
g16
sg76
I315068
sg77
I278601
sg78
g5
(g9
S'\x864\xee\xca2R)@'
p4355
tp4356
Rp4357
sg82
I875760
sg83
g5
(g9
S'\xff=\xe7\xd8k\x0c\x02@'
p4358
tp4359
Rp4360
sg87
I765920
sg88
g5
(g9
S'W\xb4\x90N\xeah\xf8\xbf'
p4361
tp4362
Rp4363
sg92
g5
(g9
S'#\xf2\xcc\xe87\x13)@'
p4364
tp4365
Rp4366
ssS'GLISAN JR BEN F'
p4367
(dp4368
g3
I873
sg4
g5
(g9
S"\xac'\x9d3\x0e\x0e|?"
p4369
tp4370
Rp4371
sg15
g16
sg17
g5
(g9
S'u\x82\xd5\x88\xd6\x1c,@'
p4372
tp4373
Rp4374
sg21
I125978
sg22
g5
(g9
S'}\x11\x8a\x8f5\xe4\xe5?'
p4375
tp4376
Rp4377
sg26
I01
sg27
g5
(g9
S'"b\xf0\x8d\xdb|\'@'
p4378
tp4379
Rp4380
sg31
g16
sg32
g5
(g9
S'\xf8\x8dO(\x18J\xf3?'
p4381
tp4382
Rp4383
sg36
S'ben.glisan@enron.com'
p4384
sg38
I145
sg39
g5
(g9
S'D\r\xcc\x05\xe8\x1a\xad?'
p4385
tp4386
Rp4387
sg43
g5
(g9
S'\xaa\x02\x0e-x\xb8)@'
p4388
tp4389
Rp4390
sg44
g16
sg45
I874
sg46
g16
sg47
I16
sg48
I200308
sg49
g5
(g9
S'\x12\xd3\x80\xb6_!+@'
p4391
tp4392
Rp4393
sg53
g5
(g9
S'~\x97\xa8`\xdaHz?'
p4394
tp4395
Rp4396
sg57
g5
(g9
S'\xcd\x13\xa6\x0cLj(@'
p4397
tp4398
Rp4399
sg61
g5
(g9
S'\x16\xac\xd6\xbamW&@'
p4400
tp4401
Rp4402
sg62
g16
sg63
g5
(g9
S'[\xee\xe7\xa9\xff\x9b*@'
p4403
tp4404
Rp4405
sg67
I600000
sg68
I778546
sg69
I52
sg70
I6
sg71
g5
(g9
S'\x00\x18\xd4\xa2\x0fW\xef?'
p4406
tp4407
Rp4408
sg75
I71023
sg76
I393818
sg77
I274975
sg78
g5
(g9
S'\xc5\xa4\xa1\x01m\xc4)@'
p4409
tp4410
Rp4411
sg82
I1272284
sg83
g5
(g9
S'\x04\xc5\xfa\x84\x94&\xf7?'
p4412
tp4413
Rp4414
sg87
I384728
sg88
g5
(g9
S'r\x9e\xb4\xf0\x93Z\xfb\xbf'
p4415
tp4416
Rp4417
sg92
g5
(g9
S'w\x8c\x18\xce\x82\x0c)@'
p4418
tp4419
Rp4420
ss.