(lp0
S'poi'
p1
aS'log_salary'
p2
aS'log_total'
p3
aS'log_bonus'
p4
aS'log_restricted'
p5
aS'log_other'
p6
aS'log_exercised_stock_options'
p7
aS'log_long_term_incentive'
p8
aS'log_total_stock_value'
p9
aS'log_expense'
p10
aS'to_ratio'
p11
aS'from_ratio'
p12
aS'to_poi_ratio'
p13
aS'from_poi_ratio'
p14
aS'to_mail_ratio'
p15
a.